Archive member included to satisfy reference by file (symbol)

/usr/lib/gcc/arm-none-eabi/7.3.1/libgcc.a(_aeabi_uldivmod.o)
                              ./fakefat32.o (__aeabi_uldivmod)
/usr/lib/gcc/arm-none-eabi/7.3.1/libgcc.a(_udivmoddi4.o)
                              /usr/lib/gcc/arm-none-eabi/7.3.1/libgcc.a(_aeabi_uldivmod.o) (__udivmoddi4)
/usr/lib/gcc/arm-none-eabi/7.3.1/libgcc.a(_dvmd_tls.o)
                              /usr/lib/gcc/arm-none-eabi/7.3.1/libgcc.a(_aeabi_uldivmod.o) (__aeabi_ldiv0)
/usr/lib/gcc/arm-none-eabi/7.3.1/libgcc.a(_clzdi2.o)
                              /usr/lib/gcc/arm-none-eabi/7.3.1/libgcc.a(_udivmoddi4.o) (__clzdi2)
/usr/lib/gcc/arm-none-eabi/7.3.1/libgcc.a(_clzsi2.o)
                              /usr/lib/gcc/arm-none-eabi/7.3.1/libgcc.a(_clzdi2.o) (__clzsi2)
/usr/lib/gcc/arm-none-eabi/7.3.1/../../../arm-none-eabi/lib/libc.a(lib_a-atexit.o)
                              /usr/lib/gcc/arm-none-eabi/7.3.1/../../../arm-none-eabi/lib/crt0.o (atexit)
/usr/lib/gcc/arm-none-eabi/7.3.1/../../../arm-none-eabi/lib/libc.a(lib_a-ctype_.o)
                              ./fakefat32.o (_ctype_)
/usr/lib/gcc/arm-none-eabi/7.3.1/../../../arm-none-eabi/lib/libc.a(lib_a-exit.o)
                              /usr/lib/gcc/arm-none-eabi/7.3.1/../../../arm-none-eabi/lib/crt0.o (exit)
/usr/lib/gcc/arm-none-eabi/7.3.1/../../../arm-none-eabi/lib/libc.a(lib_a-fini.o)
                              /usr/lib/gcc/arm-none-eabi/7.3.1/../../../arm-none-eabi/lib/crt0.o (__libc_fini_array)
/usr/lib/gcc/arm-none-eabi/7.3.1/../../../arm-none-eabi/lib/libc.a(lib_a-impure.o)
                              /usr/lib/gcc/arm-none-eabi/7.3.1/../../../arm-none-eabi/lib/libc.a(lib_a-exit.o) (_global_impure_ptr)
/usr/lib/gcc/arm-none-eabi/7.3.1/../../../arm-none-eabi/lib/libc.a(lib_a-init.o)
                              /usr/lib/gcc/arm-none-eabi/7.3.1/../../../arm-none-eabi/lib/crt0.o (__libc_init_array)
/usr/lib/gcc/arm-none-eabi/7.3.1/../../../arm-none-eabi/lib/libc.a(lib_a-malloc.o)
                              ./compiler_string.o (malloc)
/usr/lib/gcc/arm-none-eabi/7.3.1/../../../arm-none-eabi/lib/libc.a(lib_a-mallocr.o)
                              /usr/lib/gcc/arm-none-eabi/7.3.1/../../../arm-none-eabi/lib/libc.a(lib_a-malloc.o) (_malloc_r)
/usr/lib/gcc/arm-none-eabi/7.3.1/../../../arm-none-eabi/lib/libc.a(lib_a-mlock.o)
                              /usr/lib/gcc/arm-none-eabi/7.3.1/../../../arm-none-eabi/lib/libc.a(lib_a-mallocr.o) (__malloc_lock)
/usr/lib/gcc/arm-none-eabi/7.3.1/../../../arm-none-eabi/lib/libc.a(lib_a-sbrkr.o)
                              /usr/lib/gcc/arm-none-eabi/7.3.1/../../../arm-none-eabi/lib/libc.a(lib_a-mallocr.o) (_sbrk_r)
/usr/lib/gcc/arm-none-eabi/7.3.1/../../../arm-none-eabi/lib/libc.a(lib_a-__atexit.o)
                              /usr/lib/gcc/arm-none-eabi/7.3.1/../../../arm-none-eabi/lib/libc.a(lib_a-atexit.o) (__register_exitproc)
/usr/lib/gcc/arm-none-eabi/7.3.1/../../../arm-none-eabi/lib/libc.a(lib_a-__call_atexit.o)
                              /usr/lib/gcc/arm-none-eabi/7.3.1/../../../arm-none-eabi/lib/libc.a(lib_a-exit.o) (__call_exitprocs)
/usr/lib/gcc/arm-none-eabi/7.3.1/../../../arm-none-eabi/lib/libc.a(lib_a-freer.o)
                              /usr/lib/gcc/arm-none-eabi/7.3.1/../../../arm-none-eabi/lib/libc.a(lib_a-malloc.o) (_free_r)
/usr/lib/gcc/arm-none-eabi/7.3.1/../../../arm-none-eabi/lib/libc.a(lib_a-reent.o)
                              /usr/lib/gcc/arm-none-eabi/7.3.1/../../../arm-none-eabi/lib/libc.a(lib_a-sbrkr.o) (errno)

Allocating common symbols
Common symbol       size              file

errno               0x4               /usr/lib/gcc/arm-none-eabi/7.3.1/../../../arm-none-eabi/lib/libc.a(lib_a-reent.o)

Discarded input sections

 .text          0x0000000000000000        0x0 /usr/lib/gcc/arm-none-eabi/7.3.1/crti.o
 .data          0x0000000000000000        0x0 /usr/lib/gcc/arm-none-eabi/7.3.1/crti.o
 .bss           0x0000000000000000        0x0 /usr/lib/gcc/arm-none-eabi/7.3.1/crti.o
 .text          0x0000000000000000       0xdc /usr/lib/gcc/arm-none-eabi/7.3.1/crtbegin.o
 .data          0x0000000000000000        0x4 /usr/lib/gcc/arm-none-eabi/7.3.1/crtbegin.o
 .bss           0x0000000000000000       0x1c /usr/lib/gcc/arm-none-eabi/7.3.1/crtbegin.o
 .init_array    0x0000000000000000        0x4 /usr/lib/gcc/arm-none-eabi/7.3.1/crtbegin.o
 .fini_array    0x0000000000000000        0x4 /usr/lib/gcc/arm-none-eabi/7.3.1/crtbegin.o
 .eh_frame      0x0000000000000000        0x0 /usr/lib/gcc/arm-none-eabi/7.3.1/crtbegin.o
 .tm_clone_table
                0x0000000000000000        0x0 /usr/lib/gcc/arm-none-eabi/7.3.1/crtbegin.o
 .comment       0x0000000000000000       0x58 /usr/lib/gcc/arm-none-eabi/7.3.1/crtbegin.o
 .ARM.attributes
                0x0000000000000000       0x30 /usr/lib/gcc/arm-none-eabi/7.3.1/crtbegin.o
 .text          0x0000000000000000      0x104 /usr/lib/gcc/arm-none-eabi/7.3.1/../../../arm-none-eabi/lib/crt0.o
 .data          0x0000000000000000        0x0 /usr/lib/gcc/arm-none-eabi/7.3.1/../../../arm-none-eabi/lib/crt0.o
 .bss           0x0000000000000000        0x0 /usr/lib/gcc/arm-none-eabi/7.3.1/../../../arm-none-eabi/lib/crt0.o
 .ARM.extab     0x0000000000000000        0x0 /usr/lib/gcc/arm-none-eabi/7.3.1/../../../arm-none-eabi/lib/crt0.o
 .ARM.exidx     0x0000000000000000        0x8 /usr/lib/gcc/arm-none-eabi/7.3.1/../../../arm-none-eabi/lib/crt0.o
 .debug_line    0x0000000000000000       0x95 /usr/lib/gcc/arm-none-eabi/7.3.1/../../../arm-none-eabi/lib/crt0.o
 .debug_info    0x0000000000000000       0x26 /usr/lib/gcc/arm-none-eabi/7.3.1/../../../arm-none-eabi/lib/crt0.o
 .debug_abbrev  0x0000000000000000       0x14 /usr/lib/gcc/arm-none-eabi/7.3.1/../../../arm-none-eabi/lib/crt0.o
 .debug_aranges
                0x0000000000000000       0x20 /usr/lib/gcc/arm-none-eabi/7.3.1/../../../arm-none-eabi/lib/crt0.o
 .debug_str     0x0000000000000000       0x71 /usr/lib/gcc/arm-none-eabi/7.3.1/../../../arm-none-eabi/lib/crt0.o
 .ARM.attributes
                0x0000000000000000       0x12 /usr/lib/gcc/arm-none-eabi/7.3.1/../../../arm-none-eabi/lib/crt0.o
 .text          0x0000000000000000       0x14 ./startup_stm32f10x_md.o
 .data          0x0000000000000000        0x0 ./startup_stm32f10x_md.o
 .bss           0x0000000000000000        0x0 ./startup_stm32f10x_md.o
 .data          0x0000000000000000        0x0 ./core_cm3.o
 .bss           0x0000000000000000        0x0 ./core_cm3.o
 .text          0x0000000000000000      0x138 ./system_stm32f10x.o
 .data          0x0000000000000000       0x14 ./system_stm32f10x.o
 .bss           0x0000000000000000        0x0 ./system_stm32f10x.o
 .debug_info    0x0000000000000000      0x368 ./system_stm32f10x.o
 .debug_abbrev  0x0000000000000000      0x19f ./system_stm32f10x.o
 .debug_loc     0x0000000000000000       0xb1 ./system_stm32f10x.o
 .debug_aranges
                0x0000000000000000       0x20 ./system_stm32f10x.o
 .debug_line    0x0000000000000000      0x1d6 ./system_stm32f10x.o
 .debug_str     0x0000000000000000      0x32b ./system_stm32f10x.o
 .comment       0x0000000000000000       0x58 ./system_stm32f10x.o
 .debug_frame   0x0000000000000000       0x38 ./system_stm32f10x.o
 .ARM.attributes
                0x0000000000000000       0x33 ./system_stm32f10x.o
 .data          0x0000000000000000        0x0 ./misc.o
 .bss           0x0000000000000000        0x0 ./misc.o
 .data          0x0000000000000000        0x0 ./stm32f10x_dma.o
 .bss           0x0000000000000000        0x0 ./stm32f10x_dma.o
 .data          0x0000000000000000        0x0 ./stm32f10x_gpio.o
 .bss           0x0000000000000000        0x0 ./stm32f10x_gpio.o
 .bss           0x0000000000000000        0x0 ./stm32f10x_rcc.o
 .data          0x0000000000000000        0x0 ./stm32f10x_spi.o
 .bss           0x0000000000000000        0x0 ./stm32f10x_spi.o
 .data          0x0000000000000000        0x0 ./stm32f10x_tim.o
 .bss           0x0000000000000000        0x0 ./stm32f10x_tim.o
 .data          0x0000000000000000        0x0 ./usb_mem.o
 .bss           0x0000000000000000        0x0 ./usb_mem.o
 .data          0x0000000000000000        0x0 ./usb_regs.o
 .bss           0x0000000000000000        0x0 ./usb_regs.o
 .text          0x0000000000000000        0x0 ./main.o
 .data          0x0000000000000000        0x0 ./main.o
 .bss           0x0000000000000000        0x0 ./main.o
 .bss           0x0000000000000000        0x0 ./usb_protocol_Versaloon.o
 .data          0x0000000000000000        0x0 ./vsfusbd_Versaloon.o
 .data          0x0000000000000000        0x0 ./compiler_string.o
 .bss           0x0000000000000000        0x0 ./compiler_string.o
 .data          0x0000000000000000        0x0 ./syscall.o
 .text          0x0000000000000000      0x364 ./stlink.o
 .data          0x0000000000000000       0x84 ./stlink.o
 .bss           0x0000000000000000        0x0 ./stlink.o
 .debug_info    0x0000000000000000     0x2c73 ./stlink.o
 .debug_abbrev  0x0000000000000000      0x27f ./stlink.o
 .debug_loc     0x0000000000000000      0x855 ./stlink.o
 .debug_aranges
                0x0000000000000000       0x20 ./stlink.o
 .debug_ranges  0x0000000000000000       0xd0 ./stlink.o
 .debug_line    0x0000000000000000      0x3b9 ./stlink.o
 .debug_str     0x0000000000000000     0x155f ./stlink.o
 .comment       0x0000000000000000       0x58 ./stlink.o
 .debug_frame   0x0000000000000000       0x44 ./stlink.o
 .ARM.attributes
                0x0000000000000000       0x33 ./stlink.o
 .text          0x0000000000000000        0x0 ./adi_v5p1.o
 .data          0x0000000000000000        0x0 ./adi_v5p1.o
 .bss           0x0000000000000000        0x0 ./adi_v5p1.o
 .debug_line    0x0000000000000000        0x0 ./adi_v5p1.o
 .debug_str     0x0000000000000000      0x109 ./adi_v5p1.o
 .comment       0x0000000000000000       0x58 ./adi_v5p1.o
 .ARM.attributes
                0x0000000000000000       0x35 ./adi_v5p1.o
 .text          0x0000000000000000        0x0 ./cm_common.o
 .data          0x0000000000000000        0x0 ./cm_common.o
 .bss           0x0000000000000000        0x0 ./cm_common.o
 .debug_info    0x0000000000000000      0x88d ./cm_common.o
 .debug_abbrev  0x0000000000000000      0x18b ./cm_common.o
 .debug_aranges
                0x0000000000000000       0x18 ./cm_common.o
 .debug_line    0x0000000000000000       0xab ./cm_common.o
 .debug_str     0x0000000000000000      0x584 ./cm_common.o
 .comment       0x0000000000000000       0x58 ./cm_common.o
 .ARM.attributes
                0x0000000000000000       0x35 ./cm_common.o
 .bss           0x0000000000000000        0x0 ./app_interfaces.o
 .data          0x0000000000000000        0x0 ./GPIO.o
 .bss           0x0000000000000000        0x0 ./GPIO.o
 .data          0x0000000000000000        0x0 ./CLKO.o
 .bss           0x0000000000000000        0x0 ./CLKO.o
 .bss           0x0000000000000000        0x0 ./USART.o
 .data          0x0000000000000000        0x0 ./SPI.o
 .text          0x0000000000000000        0x0 ./SDIO.o
 .data          0x0000000000000000        0x0 ./SDIO.o
 .bss           0x0000000000000000        0x0 ./SDIO.o
 .debug_line    0x0000000000000000        0x0 ./SDIO.o
 .debug_str     0x0000000000000000       0xfb ./SDIO.o
 .comment       0x0000000000000000       0x58 ./SDIO.o
 .ARM.attributes
                0x0000000000000000       0x35 ./SDIO.o
 .data          0x0000000000000000        0x0 ./SWIM.o
 .data          0x0000000000000000        0x0 ./DUSI.o
 .bss           0x0000000000000000        0x0 ./DUSI.o
 .data          0x0000000000000000        0x0 ./MicroWire.o
 .data          0x0000000000000000        0x0 ./PowerExt.o
 .data          0x0000000000000000        0x0 ./IIC.o
 .data          0x0000000000000000        0x0 ./C2.o
 .bss           0x0000000000000000        0x0 ./C2.o
 .data          0x0000000000000000        0x0 ./ISSP.o
 .bss           0x0000000000000000        0x0 ./ISSP.o
 .data          0x0000000000000000        0x0 ./LPC_ICP.o
 .bss           0x0000000000000000        0x0 ./LPC_ICP.o
 .data          0x0000000000000000        0x0 ./MSP430_JTAG.o
 .bss           0x0000000000000000        0x0 ./MSP430_JTAG.o
 .data          0x0000000000000000        0x0 ./BDM.o
 .data          0x0000000000000000        0x0 ./PWM.o
 .text          0x0000000000000000        0x0 ./EBI.o
 .data          0x0000000000000000        0x0 ./EBI.o
 .bss           0x0000000000000000        0x0 ./EBI.o
 .debug_line    0x0000000000000000        0x0 ./EBI.o
 .debug_str     0x0000000000000000       0xf9 ./EBI.o
 .comment       0x0000000000000000       0x58 ./EBI.o
 .ARM.attributes
                0x0000000000000000       0x35 ./EBI.o
 .data          0x0000000000000000        0x0 ./ADC.o
 .bss           0x0000000000000000        0x0 ./ADC.o
 .data          0x0000000000000000        0x0 ./interfaces.o
 .bss           0x0000000000000000        0x0 ./interfaces.o
 .bss           0x0000000000000000        0x0 ./core.o
 .data          0x0000000000000000        0x0 ./STM32_CLKO.o
 .bss           0x0000000000000000        0x0 ./STM32_CLKO.o
 .data          0x0000000000000000        0x0 ./STM32_GPIO.o
 .bss           0x0000000000000000        0x0 ./STM32_GPIO.o
 .data          0x0000000000000000        0x0 ./STM32_SPI.o
 .bss           0x0000000000000000        0x0 ./STM32_SPI.o
 .data          0x0000000000000000        0x0 ./STM32_TIM.o
 .bss           0x0000000000000000        0x0 ./STM32_TIM.o
 .data          0x0000000000000000        0x0 ./STM32_EINT.o
 .data          0x0000000000000000        0x0 ./STM32_ADC.o
 .bss           0x0000000000000000        0x0 ./STM32_ADC.o
 .data          0x0000000000000000        0x0 ./STM32_USART.o
 .data          0x0000000000000000        0x0 ./STM32_EBI.o
 .bss           0x0000000000000000        0x0 ./STM32_EBI.o
 .data          0x0000000000000000        0x0 ./STM32_FLASH.o
 .bss           0x0000000000000000        0x0 ./STM32_FLASH.o
 .data          0x0000000000000000        0x0 ./STM32_SDIO.o
 .data          0x0000000000000000        0x0 ./usart_stream.o
 .bss           0x0000000000000000        0x0 ./usart_stream.o
 .data          0x0000000000000000        0x0 ./stream.o
 .bss           0x0000000000000000        0x0 ./stream.o
 .text          0x0000000000000000      0x4a0 ./mal.o
 .data          0x0000000000000000        0x0 ./mal.o
 .bss           0x0000000000000000        0x0 ./mal.o
 .rodata        0x0000000000000000       0x74 ./mal.o
 .debug_info    0x0000000000000000     0x389b ./mal.o
 .debug_abbrev  0x0000000000000000      0x3a6 ./mal.o
 .debug_loc     0x0000000000000000     0x151b ./mal.o
 .debug_aranges
                0x0000000000000000       0x20 ./mal.o
 .debug_ranges  0x0000000000000000       0x78 ./mal.o
 .debug_line    0x0000000000000000      0x4e8 ./mal.o
 .debug_str     0x0000000000000000     0x168a ./mal.o
 .comment       0x0000000000000000       0x58 ./mal.o
 .debug_frame   0x0000000000000000      0x300 ./mal.o
 .ARM.attributes
                0x0000000000000000       0x33 ./mal.o
 .data          0x0000000000000000        0x0 ./vsf_usbd.o
 .bss           0x0000000000000000        0x0 ./vsf_usbd.o
 .data          0x0000000000000000        0x0 ./vsfusbd_CDC.o
 .bss           0x0000000000000000        0x0 ./vsfusbd_CDC.o
 .data          0x0000000000000000        0x0 ./vsfusbd_CDCACM.o
 .bss           0x0000000000000000        0x0 ./vsfusbd_CDCACM.o
 .text          0x0000000000000000      0x4d8 ./vsfusbd_HID.o
 .data          0x0000000000000000        0x0 ./vsfusbd_HID.o
 .bss           0x0000000000000000        0x0 ./vsfusbd_HID.o
 .rodata        0x0000000000000000       0x70 ./vsfusbd_HID.o
 .debug_info    0x0000000000000000     0x36d6 ./vsfusbd_HID.o
 .debug_abbrev  0x0000000000000000      0x3fe ./vsfusbd_HID.o
 .debug_loc     0x0000000000000000      0xe9b ./vsfusbd_HID.o
 .debug_aranges
                0x0000000000000000       0x20 ./vsfusbd_HID.o
 .debug_ranges  0x0000000000000000       0x30 ./vsfusbd_HID.o
 .debug_line    0x0000000000000000      0x4e5 ./vsfusbd_HID.o
 .debug_str     0x0000000000000000     0x1a8d ./vsfusbd_HID.o
 .comment       0x0000000000000000       0x58 ./vsfusbd_HID.o
 .debug_frame   0x0000000000000000      0x198 ./vsfusbd_HID.o
 .ARM.attributes
                0x0000000000000000       0x33 ./vsfusbd_HID.o
 .text          0x0000000000000000      0x660 ./vsfusbd_MSC_BOT.o
 .data          0x0000000000000000        0x0 ./vsfusbd_MSC_BOT.o
 .bss           0x0000000000000000        0x0 ./vsfusbd_MSC_BOT.o
 .rodata        0x0000000000000000       0x40 ./vsfusbd_MSC_BOT.o
 .debug_info    0x0000000000000000     0x3812 ./vsfusbd_MSC_BOT.o
 .debug_abbrev  0x0000000000000000      0x418 ./vsfusbd_MSC_BOT.o
 .debug_loc     0x0000000000000000      0xce4 ./vsfusbd_MSC_BOT.o
 .debug_aranges
                0x0000000000000000       0x20 ./vsfusbd_MSC_BOT.o
 .debug_ranges  0x0000000000000000       0xe0 ./vsfusbd_MSC_BOT.o
 .debug_line    0x0000000000000000      0x525 ./vsfusbd_MSC_BOT.o
 .debug_str     0x0000000000000000     0x1be0 ./vsfusbd_MSC_BOT.o
 .comment       0x0000000000000000       0x58 ./vsfusbd_MSC_BOT.o
 .debug_frame   0x0000000000000000      0x15c ./vsfusbd_MSC_BOT.o
 .ARM.attributes
                0x0000000000000000       0x33 ./vsfusbd_MSC_BOT.o
 .text          0x0000000000000000      0x634 ./SCSI.o
 .data          0x0000000000000000        0x0 ./SCSI.o
 .bss           0x0000000000000000        0x1 ./SCSI.o
 .rodata        0x0000000000000000       0xc0 ./SCSI.o
 .debug_info    0x0000000000000000     0x349c ./SCSI.o
 .debug_abbrev  0x0000000000000000      0x3a1 ./SCSI.o
 .debug_loc     0x0000000000000000     0x105b ./SCSI.o
 .debug_aranges
                0x0000000000000000       0x20 ./SCSI.o
 .debug_ranges  0x0000000000000000       0x30 ./SCSI.o
 .debug_line    0x0000000000000000      0x4b8 ./SCSI.o
 .debug_str     0x0000000000000000     0x1880 ./SCSI.o
 .comment       0x0000000000000000       0x58 ./SCSI.o
 .debug_frame   0x0000000000000000      0x250 ./SCSI.o
 .ARM.attributes
                0x0000000000000000       0x33 ./SCSI.o
 .data          0x0000000000000000        0x0 ./buffer.o
 .bss           0x0000000000000000        0x0 ./buffer.o
 .text          0x0000000000000000      0xb14 ./fakefat32.o
 .data          0x0000000000000000      0x280 ./fakefat32.o
 .bss           0x0000000000000000        0x0 ./fakefat32.o
 .rodata.str1.1
                0x0000000000000000       0x10 ./fakefat32.o
 .debug_info    0x0000000000000000     0x3e61 ./fakefat32.o
 .debug_abbrev  0x0000000000000000      0x488 ./fakefat32.o
 .debug_loc     0x0000000000000000     0x19dc ./fakefat32.o
 .debug_aranges
                0x0000000000000000       0x20 ./fakefat32.o
 .debug_ranges  0x0000000000000000      0x1e8 ./fakefat32.o
 .debug_line    0x0000000000000000      0x6ce ./fakefat32.o
 .debug_str     0x0000000000000000     0x1a67 ./fakefat32.o
 .comment       0x0000000000000000       0x58 ./fakefat32.o
 .debug_frame   0x0000000000000000      0x2d0 ./fakefat32.o
 .ARM.attributes
                0x0000000000000000       0x33 ./fakefat32.o
 .text          0x0000000000000000       0x5e ./crc.o
 .data          0x0000000000000000        0x0 ./crc.o
 .bss           0x0000000000000000        0x0 ./crc.o
 .debug_info    0x0000000000000000      0x1ba ./crc.o
 .debug_abbrev  0x0000000000000000       0xe8 ./crc.o
 .debug_loc     0x0000000000000000      0x150 ./crc.o
 .debug_aranges
                0x0000000000000000       0x20 ./crc.o
 .debug_line    0x0000000000000000       0xcf ./crc.o
 .debug_str     0x0000000000000000      0x228 ./crc.o
 .comment       0x0000000000000000       0x58 ./crc.o
 .debug_frame   0x0000000000000000       0x30 ./crc.o
 .ARM.attributes
                0x0000000000000000       0x33 ./crc.o
 .data          0x0000000000000000        0x0 ./USB_TO_XXX.o
 .data          0x0000000000000000        0x0 ./USB_TO_CLKO.o
 .bss           0x0000000000000000        0x0 ./USB_TO_CLKO.o
 .text          0x0000000000000000        0x0 ./USB_TO_USART.o
 .data          0x0000000000000000        0x0 ./USB_TO_USART.o
 .bss           0x0000000000000000        0x0 ./USB_TO_USART.o
 .debug_line    0x0000000000000000        0x0 ./USB_TO_USART.o
 .debug_str     0x0000000000000000       0xfa ./USB_TO_USART.o
 .comment       0x0000000000000000       0x58 ./USB_TO_USART.o
 .ARM.attributes
                0x0000000000000000       0x35 ./USB_TO_USART.o
 .data          0x0000000000000000        0x0 ./USB_TO_SPI.o
 .bss           0x0000000000000000        0x0 ./USB_TO_SPI.o
 .data          0x0000000000000000        0x0 ./USB_TO_IIC.o
 .bss           0x0000000000000000        0x0 ./USB_TO_IIC.o
 .data          0x0000000000000000        0x0 ./USB_TO_GPIO.o
 .bss           0x0000000000000000        0x0 ./USB_TO_GPIO.o
 .data          0x0000000000000000        0x0 ./USB_TO_PWM.o
 .bss           0x0000000000000000        0x0 ./USB_TO_PWM.o
 .data          0x0000000000000000        0x0 ./USB_TO_ADC.o
 .bss           0x0000000000000000        0x0 ./USB_TO_ADC.o
 .text          0x0000000000000000        0x0 ./USB_TO_DAC.o
 .data          0x0000000000000000        0x0 ./USB_TO_DAC.o
 .bss           0x0000000000000000        0x0 ./USB_TO_DAC.o
 .debug_line    0x0000000000000000        0x0 ./USB_TO_DAC.o
 .debug_str     0x0000000000000000       0xf8 ./USB_TO_DAC.o
 .comment       0x0000000000000000       0x58 ./USB_TO_DAC.o
 .ARM.attributes
                0x0000000000000000       0x35 ./USB_TO_DAC.o
 .data          0x0000000000000000        0x0 ./USB_TO_POWER.o
 .bss           0x0000000000000000        0x0 ./USB_TO_POWER.o
 .data          0x0000000000000000        0x0 ./USB_TO_C2.o
 .bss           0x0000000000000000        0x0 ./USB_TO_C2.o
 .data          0x0000000000000000        0x0 ./USB_TO_ISSP.o
 .bss           0x0000000000000000        0x0 ./USB_TO_ISSP.o
 .data          0x0000000000000000        0x0 ./USB_TO_LPCICP.o
 .bss           0x0000000000000000        0x0 ./USB_TO_LPCICP.o
 .data          0x0000000000000000        0x0 ./USB_TO_MSP430_JTAG.o
 .bss           0x0000000000000000        0x0 ./USB_TO_MSP430_JTAG.o
 .data          0x0000000000000000        0x0 ./USB_TO_JTAG_HL.o
 .bss           0x0000000000000000        0x0 ./USB_TO_JTAG_HL.o
 .data          0x0000000000000000        0x0 ./USB_TO_SWD.o
 .bss           0x0000000000000000        0x0 ./USB_TO_SWD.o
 .data          0x0000000000000000        0x0 ./USB_TO_JTAG_LL.o
 .bss           0x0000000000000000        0x0 ./USB_TO_JTAG_LL.o
 .data          0x0000000000000000        0x0 ./USB_TO_SWIM.o
 .bss           0x0000000000000000        0x0 ./USB_TO_SWIM.o
 .data          0x0000000000000000        0x0 ./USB_TO_JTAG_RAW.o
 .bss           0x0000000000000000        0x0 ./USB_TO_JTAG_RAW.o
 .data          0x0000000000000000        0x0 ./USB_TO_BDM.o
 .bss           0x0000000000000000        0x0 ./USB_TO_BDM.o
 .data          0x0000000000000000        0x0 ./USB_TO_DUSI.o
 .bss           0x0000000000000000        0x0 ./USB_TO_DUSI.o
 .data          0x0000000000000000        0x0 ./USB_TO_MICROWIRE.o
 .bss           0x0000000000000000        0x0 ./USB_TO_MICROWIRE.o
 .text          0x0000000000000000        0x0 ./USB_TO_EBI.o
 .data          0x0000000000000000        0x0 ./USB_TO_EBI.o
 .bss           0x0000000000000000        0x0 ./USB_TO_EBI.o
 .debug_line    0x0000000000000000        0x0 ./USB_TO_EBI.o
 .debug_str     0x0000000000000000       0xf8 ./USB_TO_EBI.o
 .comment       0x0000000000000000       0x58 ./USB_TO_EBI.o
 .ARM.attributes
                0x0000000000000000       0x35 ./USB_TO_EBI.o
 .data          0x0000000000000000        0x0 ./CommandProcessor.o
 .bss           0x0000000000000000        0x0 ./CommandProcessor.o
 .rodata        0x0000000000000000       0x31 ./CommandProcessor.o
 .text          0x0000000000000000       0x3c /usr/lib/gcc/arm-none-eabi/7.3.1/libgcc.a(_aeabi_uldivmod.o)
 .data          0x0000000000000000        0x0 /usr/lib/gcc/arm-none-eabi/7.3.1/libgcc.a(_aeabi_uldivmod.o)
 .bss           0x0000000000000000        0x0 /usr/lib/gcc/arm-none-eabi/7.3.1/libgcc.a(_aeabi_uldivmod.o)
 .debug_line    0x0000000000000000       0x57 /usr/lib/gcc/arm-none-eabi/7.3.1/libgcc.a(_aeabi_uldivmod.o)
 .debug_info    0x0000000000000000       0x26 /usr/lib/gcc/arm-none-eabi/7.3.1/libgcc.a(_aeabi_uldivmod.o)
 .debug_abbrev  0x0000000000000000       0x14 /usr/lib/gcc/arm-none-eabi/7.3.1/libgcc.a(_aeabi_uldivmod.o)
 .debug_aranges
                0x0000000000000000       0x20 /usr/lib/gcc/arm-none-eabi/7.3.1/libgcc.a(_aeabi_uldivmod.o)
 .debug_str     0x0000000000000000       0x62 /usr/lib/gcc/arm-none-eabi/7.3.1/libgcc.a(_aeabi_uldivmod.o)
 .debug_frame   0x0000000000000000       0x2c /usr/lib/gcc/arm-none-eabi/7.3.1/libgcc.a(_aeabi_uldivmod.o)
 .ARM.attributes
                0x0000000000000000       0x18 /usr/lib/gcc/arm-none-eabi/7.3.1/libgcc.a(_aeabi_uldivmod.o)
 .text          0x0000000000000000      0x16c /usr/lib/gcc/arm-none-eabi/7.3.1/libgcc.a(_udivmoddi4.o)
 .data          0x0000000000000000        0x0 /usr/lib/gcc/arm-none-eabi/7.3.1/libgcc.a(_udivmoddi4.o)
 .bss           0x0000000000000000        0x0 /usr/lib/gcc/arm-none-eabi/7.3.1/libgcc.a(_udivmoddi4.o)
 .ARM.extab     0x0000000000000000        0x0 /usr/lib/gcc/arm-none-eabi/7.3.1/libgcc.a(_udivmoddi4.o)
 .ARM.exidx     0x0000000000000000        0x8 /usr/lib/gcc/arm-none-eabi/7.3.1/libgcc.a(_udivmoddi4.o)
 .debug_info    0x0000000000000000      0xa2e /usr/lib/gcc/arm-none-eabi/7.3.1/libgcc.a(_udivmoddi4.o)
 .debug_abbrev  0x0000000000000000      0x146 /usr/lib/gcc/arm-none-eabi/7.3.1/libgcc.a(_udivmoddi4.o)
 .debug_loc     0x0000000000000000      0x1e7 /usr/lib/gcc/arm-none-eabi/7.3.1/libgcc.a(_udivmoddi4.o)
 .debug_aranges
                0x0000000000000000       0x20 /usr/lib/gcc/arm-none-eabi/7.3.1/libgcc.a(_udivmoddi4.o)
 .debug_line    0x0000000000000000      0x11c /usr/lib/gcc/arm-none-eabi/7.3.1/libgcc.a(_udivmoddi4.o)
 .debug_str     0x0000000000000000     0x137a /usr/lib/gcc/arm-none-eabi/7.3.1/libgcc.a(_udivmoddi4.o)
 .comment       0x0000000000000000       0x58 /usr/lib/gcc/arm-none-eabi/7.3.1/libgcc.a(_udivmoddi4.o)
 .debug_frame   0x0000000000000000       0x48 /usr/lib/gcc/arm-none-eabi/7.3.1/libgcc.a(_udivmoddi4.o)
 .ARM.attributes
                0x0000000000000000       0x30 /usr/lib/gcc/arm-none-eabi/7.3.1/libgcc.a(_udivmoddi4.o)
 .text          0x0000000000000000        0x4 /usr/lib/gcc/arm-none-eabi/7.3.1/libgcc.a(_dvmd_tls.o)
 .data          0x0000000000000000        0x0 /usr/lib/gcc/arm-none-eabi/7.3.1/libgcc.a(_dvmd_tls.o)
 .bss           0x0000000000000000        0x0 /usr/lib/gcc/arm-none-eabi/7.3.1/libgcc.a(_dvmd_tls.o)
 .debug_line    0x0000000000000000       0x57 /usr/lib/gcc/arm-none-eabi/7.3.1/libgcc.a(_dvmd_tls.o)
 .debug_info    0x0000000000000000       0x26 /usr/lib/gcc/arm-none-eabi/7.3.1/libgcc.a(_dvmd_tls.o)
 .debug_abbrev  0x0000000000000000       0x14 /usr/lib/gcc/arm-none-eabi/7.3.1/libgcc.a(_dvmd_tls.o)
 .debug_aranges
                0x0000000000000000       0x20 /usr/lib/gcc/arm-none-eabi/7.3.1/libgcc.a(_dvmd_tls.o)
 .debug_str     0x0000000000000000       0x66 /usr/lib/gcc/arm-none-eabi/7.3.1/libgcc.a(_dvmd_tls.o)
 .ARM.attributes
                0x0000000000000000       0x18 /usr/lib/gcc/arm-none-eabi/7.3.1/libgcc.a(_dvmd_tls.o)
 .text          0x0000000000000000       0x28 /usr/lib/gcc/arm-none-eabi/7.3.1/libgcc.a(_clzdi2.o)
 .data          0x0000000000000000        0x0 /usr/lib/gcc/arm-none-eabi/7.3.1/libgcc.a(_clzdi2.o)
 .bss           0x0000000000000000        0x0 /usr/lib/gcc/arm-none-eabi/7.3.1/libgcc.a(_clzdi2.o)
 .debug_line    0x0000000000000000       0x61 /usr/lib/gcc/arm-none-eabi/7.3.1/libgcc.a(_clzdi2.o)
 .debug_info    0x0000000000000000       0x26 /usr/lib/gcc/arm-none-eabi/7.3.1/libgcc.a(_clzdi2.o)
 .debug_abbrev  0x0000000000000000       0x14 /usr/lib/gcc/arm-none-eabi/7.3.1/libgcc.a(_clzdi2.o)
 .debug_aranges
                0x0000000000000000       0x20 /usr/lib/gcc/arm-none-eabi/7.3.1/libgcc.a(_clzdi2.o)
 .debug_str     0x0000000000000000       0x66 /usr/lib/gcc/arm-none-eabi/7.3.1/libgcc.a(_clzdi2.o)
 .ARM.attributes
                0x0000000000000000       0x18 /usr/lib/gcc/arm-none-eabi/7.3.1/libgcc.a(_clzdi2.o)
 .text          0x0000000000000000       0x48 /usr/lib/gcc/arm-none-eabi/7.3.1/libgcc.a(_clzsi2.o)
 .data          0x0000000000000000        0x0 /usr/lib/gcc/arm-none-eabi/7.3.1/libgcc.a(_clzsi2.o)
 .bss           0x0000000000000000        0x0 /usr/lib/gcc/arm-none-eabi/7.3.1/libgcc.a(_clzsi2.o)
 .debug_line    0x0000000000000000       0x64 /usr/lib/gcc/arm-none-eabi/7.3.1/libgcc.a(_clzsi2.o)
 .debug_info    0x0000000000000000       0x26 /usr/lib/gcc/arm-none-eabi/7.3.1/libgcc.a(_clzsi2.o)
 .debug_abbrev  0x0000000000000000       0x14 /usr/lib/gcc/arm-none-eabi/7.3.1/libgcc.a(_clzsi2.o)
 .debug_aranges
                0x0000000000000000       0x20 /usr/lib/gcc/arm-none-eabi/7.3.1/libgcc.a(_clzsi2.o)
 .debug_str     0x0000000000000000       0x66 /usr/lib/gcc/arm-none-eabi/7.3.1/libgcc.a(_clzsi2.o)
 .ARM.attributes
                0x0000000000000000       0x18 /usr/lib/gcc/arm-none-eabi/7.3.1/libgcc.a(_clzsi2.o)
 .text          0x0000000000000000       0x20 /usr/lib/gcc/arm-none-eabi/7.3.1/../../../arm-none-eabi/lib/libc.a(lib_a-atexit.o)
 .data          0x0000000000000000        0x0 /usr/lib/gcc/arm-none-eabi/7.3.1/../../../arm-none-eabi/lib/libc.a(lib_a-atexit.o)
 .bss           0x0000000000000000        0x0 /usr/lib/gcc/arm-none-eabi/7.3.1/../../../arm-none-eabi/lib/libc.a(lib_a-atexit.o)
 .debug_info    0x0000000000000000      0x90c /usr/lib/gcc/arm-none-eabi/7.3.1/../../../arm-none-eabi/lib/libc.a(lib_a-atexit.o)
 .debug_abbrev  0x0000000000000000      0x1fe /usr/lib/gcc/arm-none-eabi/7.3.1/../../../arm-none-eabi/lib/libc.a(lib_a-atexit.o)
 .debug_loc     0x0000000000000000       0x2c /usr/lib/gcc/arm-none-eabi/7.3.1/../../../arm-none-eabi/lib/libc.a(lib_a-atexit.o)
 .debug_aranges
                0x0000000000000000       0x20 /usr/lib/gcc/arm-none-eabi/7.3.1/../../../arm-none-eabi/lib/libc.a(lib_a-atexit.o)
 .debug_line    0x0000000000000000      0x124 /usr/lib/gcc/arm-none-eabi/7.3.1/../../../arm-none-eabi/lib/libc.a(lib_a-atexit.o)
 .debug_str     0x0000000000000000      0x58e /usr/lib/gcc/arm-none-eabi/7.3.1/../../../arm-none-eabi/lib/libc.a(lib_a-atexit.o)
 .comment       0x0000000000000000       0x58 /usr/lib/gcc/arm-none-eabi/7.3.1/../../../arm-none-eabi/lib/libc.a(lib_a-atexit.o)
 .debug_frame   0x0000000000000000       0x2c /usr/lib/gcc/arm-none-eabi/7.3.1/../../../arm-none-eabi/lib/libc.a(lib_a-atexit.o)
 .ARM.attributes
                0x0000000000000000       0x30 /usr/lib/gcc/arm-none-eabi/7.3.1/../../../arm-none-eabi/lib/libc.a(lib_a-atexit.o)
 .text          0x0000000000000000        0x0 /usr/lib/gcc/arm-none-eabi/7.3.1/../../../arm-none-eabi/lib/libc.a(lib_a-ctype_.o)
 .data          0x0000000000000000        0x0 /usr/lib/gcc/arm-none-eabi/7.3.1/../../../arm-none-eabi/lib/libc.a(lib_a-ctype_.o)
 .bss           0x0000000000000000        0x0 /usr/lib/gcc/arm-none-eabi/7.3.1/../../../arm-none-eabi/lib/libc.a(lib_a-ctype_.o)
 .rodata        0x0000000000000000      0x101 /usr/lib/gcc/arm-none-eabi/7.3.1/../../../arm-none-eabi/lib/libc.a(lib_a-ctype_.o)
 .debug_info    0x0000000000000000      0xdb6 /usr/lib/gcc/arm-none-eabi/7.3.1/../../../arm-none-eabi/lib/libc.a(lib_a-ctype_.o)
 .debug_abbrev  0x0000000000000000      0x190 /usr/lib/gcc/arm-none-eabi/7.3.1/../../../arm-none-eabi/lib/libc.a(lib_a-ctype_.o)
 .debug_aranges
                0x0000000000000000       0x18 /usr/lib/gcc/arm-none-eabi/7.3.1/../../../arm-none-eabi/lib/libc.a(lib_a-ctype_.o)
 .debug_line    0x0000000000000000      0x133 /usr/lib/gcc/arm-none-eabi/7.3.1/../../../arm-none-eabi/lib/libc.a(lib_a-ctype_.o)
 .debug_str     0x0000000000000000      0x85b /usr/lib/gcc/arm-none-eabi/7.3.1/../../../arm-none-eabi/lib/libc.a(lib_a-ctype_.o)
 .comment       0x0000000000000000       0x58 /usr/lib/gcc/arm-none-eabi/7.3.1/../../../arm-none-eabi/lib/libc.a(lib_a-ctype_.o)
 .ARM.attributes
                0x0000000000000000       0x30 /usr/lib/gcc/arm-none-eabi/7.3.1/../../../arm-none-eabi/lib/libc.a(lib_a-ctype_.o)
 .text          0x0000000000000000       0x34 /usr/lib/gcc/arm-none-eabi/7.3.1/../../../arm-none-eabi/lib/libc.a(lib_a-exit.o)
 .data          0x0000000000000000        0x0 /usr/lib/gcc/arm-none-eabi/7.3.1/../../../arm-none-eabi/lib/libc.a(lib_a-exit.o)
 .bss           0x0000000000000000        0x0 /usr/lib/gcc/arm-none-eabi/7.3.1/../../../arm-none-eabi/lib/libc.a(lib_a-exit.o)
 .debug_info    0x0000000000000000      0x941 /usr/lib/gcc/arm-none-eabi/7.3.1/../../../arm-none-eabi/lib/libc.a(lib_a-exit.o)
 .debug_abbrev  0x0000000000000000      0x1f0 /usr/lib/gcc/arm-none-eabi/7.3.1/../../../arm-none-eabi/lib/libc.a(lib_a-exit.o)
 .debug_loc     0x0000000000000000       0x1e /usr/lib/gcc/arm-none-eabi/7.3.1/../../../arm-none-eabi/lib/libc.a(lib_a-exit.o)
 .debug_aranges
                0x0000000000000000       0x20 /usr/lib/gcc/arm-none-eabi/7.3.1/../../../arm-none-eabi/lib/libc.a(lib_a-exit.o)
 .debug_line    0x0000000000000000      0x132 /usr/lib/gcc/arm-none-eabi/7.3.1/../../../arm-none-eabi/lib/libc.a(lib_a-exit.o)
 .debug_str     0x0000000000000000      0x58f /usr/lib/gcc/arm-none-eabi/7.3.1/../../../arm-none-eabi/lib/libc.a(lib_a-exit.o)
 .comment       0x0000000000000000       0x58 /usr/lib/gcc/arm-none-eabi/7.3.1/../../../arm-none-eabi/lib/libc.a(lib_a-exit.o)
 .debug_frame   0x0000000000000000       0x28 /usr/lib/gcc/arm-none-eabi/7.3.1/../../../arm-none-eabi/lib/libc.a(lib_a-exit.o)
 .ARM.attributes
                0x0000000000000000       0x30 /usr/lib/gcc/arm-none-eabi/7.3.1/../../../arm-none-eabi/lib/libc.a(lib_a-exit.o)
 .text          0x0000000000000000       0x48 /usr/lib/gcc/arm-none-eabi/7.3.1/../../../arm-none-eabi/lib/libc.a(lib_a-fini.o)
 .data          0x0000000000000000        0x0 /usr/lib/gcc/arm-none-eabi/7.3.1/../../../arm-none-eabi/lib/libc.a(lib_a-fini.o)
 .bss           0x0000000000000000        0x0 /usr/lib/gcc/arm-none-eabi/7.3.1/../../../arm-none-eabi/lib/libc.a(lib_a-fini.o)
 .debug_info    0x0000000000000000       0xf3 /usr/lib/gcc/arm-none-eabi/7.3.1/../../../arm-none-eabi/lib/libc.a(lib_a-fini.o)
 .debug_abbrev  0x0000000000000000       0xba /usr/lib/gcc/arm-none-eabi/7.3.1/../../../arm-none-eabi/lib/libc.a(lib_a-fini.o)
 .debug_loc     0x0000000000000000       0x5c /usr/lib/gcc/arm-none-eabi/7.3.1/../../../arm-none-eabi/lib/libc.a(lib_a-fini.o)
 .debug_aranges
                0x0000000000000000       0x20 /usr/lib/gcc/arm-none-eabi/7.3.1/../../../arm-none-eabi/lib/libc.a(lib_a-fini.o)
 .debug_line    0x0000000000000000       0x99 /usr/lib/gcc/arm-none-eabi/7.3.1/../../../arm-none-eabi/lib/libc.a(lib_a-fini.o)
 .debug_str     0x0000000000000000      0x19d /usr/lib/gcc/arm-none-eabi/7.3.1/../../../arm-none-eabi/lib/libc.a(lib_a-fini.o)
 .comment       0x0000000000000000       0x58 /usr/lib/gcc/arm-none-eabi/7.3.1/../../../arm-none-eabi/lib/libc.a(lib_a-fini.o)
 .debug_frame   0x0000000000000000       0x34 /usr/lib/gcc/arm-none-eabi/7.3.1/../../../arm-none-eabi/lib/libc.a(lib_a-fini.o)
 .ARM.attributes
                0x0000000000000000       0x30 /usr/lib/gcc/arm-none-eabi/7.3.1/../../../arm-none-eabi/lib/libc.a(lib_a-fini.o)
 .text          0x0000000000000000        0x0 /usr/lib/gcc/arm-none-eabi/7.3.1/../../../arm-none-eabi/lib/libc.a(lib_a-impure.o)
 .bss           0x0000000000000000        0x0 /usr/lib/gcc/arm-none-eabi/7.3.1/../../../arm-none-eabi/lib/libc.a(lib_a-impure.o)
 .rodata        0x0000000000000000        0x4 /usr/lib/gcc/arm-none-eabi/7.3.1/../../../arm-none-eabi/lib/libc.a(lib_a-impure.o)
 .text          0x0000000000000000       0x88 /usr/lib/gcc/arm-none-eabi/7.3.1/../../../arm-none-eabi/lib/libc.a(lib_a-init.o)
 .data          0x0000000000000000        0x0 /usr/lib/gcc/arm-none-eabi/7.3.1/../../../arm-none-eabi/lib/libc.a(lib_a-init.o)
 .bss           0x0000000000000000        0x0 /usr/lib/gcc/arm-none-eabi/7.3.1/../../../arm-none-eabi/lib/libc.a(lib_a-init.o)
 .debug_info    0x0000000000000000      0x109 /usr/lib/gcc/arm-none-eabi/7.3.1/../../../arm-none-eabi/lib/libc.a(lib_a-init.o)
 .debug_abbrev  0x0000000000000000       0xba /usr/lib/gcc/arm-none-eabi/7.3.1/../../../arm-none-eabi/lib/libc.a(lib_a-init.o)
 .debug_loc     0x0000000000000000       0xa2 /usr/lib/gcc/arm-none-eabi/7.3.1/../../../arm-none-eabi/lib/libc.a(lib_a-init.o)
 .debug_aranges
                0x0000000000000000       0x20 /usr/lib/gcc/arm-none-eabi/7.3.1/../../../arm-none-eabi/lib/libc.a(lib_a-init.o)
 .debug_line    0x0000000000000000       0xb3 /usr/lib/gcc/arm-none-eabi/7.3.1/../../../arm-none-eabi/lib/libc.a(lib_a-init.o)
 .debug_str     0x0000000000000000      0x1c7 /usr/lib/gcc/arm-none-eabi/7.3.1/../../../arm-none-eabi/lib/libc.a(lib_a-init.o)
 .comment       0x0000000000000000       0x58 /usr/lib/gcc/arm-none-eabi/7.3.1/../../../arm-none-eabi/lib/libc.a(lib_a-init.o)
 .debug_frame   0x0000000000000000       0x34 /usr/lib/gcc/arm-none-eabi/7.3.1/../../../arm-none-eabi/lib/libc.a(lib_a-init.o)
 .ARM.attributes
                0x0000000000000000       0x30 /usr/lib/gcc/arm-none-eabi/7.3.1/../../../arm-none-eabi/lib/libc.a(lib_a-init.o)
 .data          0x0000000000000000        0x0 /usr/lib/gcc/arm-none-eabi/7.3.1/../../../arm-none-eabi/lib/libc.a(lib_a-malloc.o)
 .bss           0x0000000000000000        0x0 /usr/lib/gcc/arm-none-eabi/7.3.1/../../../arm-none-eabi/lib/libc.a(lib_a-malloc.o)
 .data          0x0000000000000000        0x0 /usr/lib/gcc/arm-none-eabi/7.3.1/../../../arm-none-eabi/lib/libc.a(lib_a-mlock.o)
 .bss           0x0000000000000000        0x0 /usr/lib/gcc/arm-none-eabi/7.3.1/../../../arm-none-eabi/lib/libc.a(lib_a-mlock.o)
 .data          0x0000000000000000        0x0 /usr/lib/gcc/arm-none-eabi/7.3.1/../../../arm-none-eabi/lib/libc.a(lib_a-sbrkr.o)
 .bss           0x0000000000000000        0x0 /usr/lib/gcc/arm-none-eabi/7.3.1/../../../arm-none-eabi/lib/libc.a(lib_a-sbrkr.o)
 .text          0x0000000000000000       0x8c /usr/lib/gcc/arm-none-eabi/7.3.1/../../../arm-none-eabi/lib/libc.a(lib_a-__atexit.o)
 .data          0x0000000000000000        0x0 /usr/lib/gcc/arm-none-eabi/7.3.1/../../../arm-none-eabi/lib/libc.a(lib_a-__atexit.o)
 .bss           0x0000000000000000        0x0 /usr/lib/gcc/arm-none-eabi/7.3.1/../../../arm-none-eabi/lib/libc.a(lib_a-__atexit.o)
 .debug_info    0x0000000000000000      0x935 /usr/lib/gcc/arm-none-eabi/7.3.1/../../../arm-none-eabi/lib/libc.a(lib_a-__atexit.o)
 .debug_abbrev  0x0000000000000000      0x212 /usr/lib/gcc/arm-none-eabi/7.3.1/../../../arm-none-eabi/lib/libc.a(lib_a-__atexit.o)
 .debug_loc     0x0000000000000000      0x10d /usr/lib/gcc/arm-none-eabi/7.3.1/../../../arm-none-eabi/lib/libc.a(lib_a-__atexit.o)
 .debug_aranges
                0x0000000000000000       0x20 /usr/lib/gcc/arm-none-eabi/7.3.1/../../../arm-none-eabi/lib/libc.a(lib_a-__atexit.o)
 .debug_line    0x0000000000000000      0x13f /usr/lib/gcc/arm-none-eabi/7.3.1/../../../arm-none-eabi/lib/libc.a(lib_a-__atexit.o)
 .debug_str     0x0000000000000000      0x5ac /usr/lib/gcc/arm-none-eabi/7.3.1/../../../arm-none-eabi/lib/libc.a(lib_a-__atexit.o)
 .comment       0x0000000000000000       0x58 /usr/lib/gcc/arm-none-eabi/7.3.1/../../../arm-none-eabi/lib/libc.a(lib_a-__atexit.o)
 .debug_frame   0x0000000000000000       0x38 /usr/lib/gcc/arm-none-eabi/7.3.1/../../../arm-none-eabi/lib/libc.a(lib_a-__atexit.o)
 .ARM.attributes
                0x0000000000000000       0x30 /usr/lib/gcc/arm-none-eabi/7.3.1/../../../arm-none-eabi/lib/libc.a(lib_a-__atexit.o)
 .text          0x0000000000000000      0x108 /usr/lib/gcc/arm-none-eabi/7.3.1/../../../arm-none-eabi/lib/libc.a(lib_a-__call_atexit.o)
 .data          0x0000000000000000        0x0 /usr/lib/gcc/arm-none-eabi/7.3.1/../../../arm-none-eabi/lib/libc.a(lib_a-__call_atexit.o)
 .bss           0x0000000000000000        0x0 /usr/lib/gcc/arm-none-eabi/7.3.1/../../../arm-none-eabi/lib/libc.a(lib_a-__call_atexit.o)
 .text.startup  0x0000000000000000       0x28 /usr/lib/gcc/arm-none-eabi/7.3.1/../../../arm-none-eabi/lib/libc.a(lib_a-__call_atexit.o)
 .init_array.00000
                0x0000000000000000        0x4 /usr/lib/gcc/arm-none-eabi/7.3.1/../../../arm-none-eabi/lib/libc.a(lib_a-__call_atexit.o)
 .debug_info    0x0000000000000000      0x99d /usr/lib/gcc/arm-none-eabi/7.3.1/../../../arm-none-eabi/lib/libc.a(lib_a-__call_atexit.o)
 .debug_abbrev  0x0000000000000000      0x276 /usr/lib/gcc/arm-none-eabi/7.3.1/../../../arm-none-eabi/lib/libc.a(lib_a-__call_atexit.o)
 .debug_loc     0x0000000000000000      0x137 /usr/lib/gcc/arm-none-eabi/7.3.1/../../../arm-none-eabi/lib/libc.a(lib_a-__call_atexit.o)
 .debug_aranges
                0x0000000000000000       0x28 /usr/lib/gcc/arm-none-eabi/7.3.1/../../../arm-none-eabi/lib/libc.a(lib_a-__call_atexit.o)
 .debug_ranges  0x0000000000000000       0x38 /usr/lib/gcc/arm-none-eabi/7.3.1/../../../arm-none-eabi/lib/libc.a(lib_a-__call_atexit.o)
 .debug_line    0x0000000000000000      0x170 /usr/lib/gcc/arm-none-eabi/7.3.1/../../../arm-none-eabi/lib/libc.a(lib_a-__call_atexit.o)
 .debug_str     0x0000000000000000      0x5bf /usr/lib/gcc/arm-none-eabi/7.3.1/../../../arm-none-eabi/lib/libc.a(lib_a-__call_atexit.o)
 .comment       0x0000000000000000       0x58 /usr/lib/gcc/arm-none-eabi/7.3.1/../../../arm-none-eabi/lib/libc.a(lib_a-__call_atexit.o)
 .debug_frame   0x0000000000000000       0x68 /usr/lib/gcc/arm-none-eabi/7.3.1/../../../arm-none-eabi/lib/libc.a(lib_a-__call_atexit.o)
 .ARM.attributes
                0x0000000000000000       0x30 /usr/lib/gcc/arm-none-eabi/7.3.1/../../../arm-none-eabi/lib/libc.a(lib_a-__call_atexit.o)
 .data          0x0000000000000000        0x0 /usr/lib/gcc/arm-none-eabi/7.3.1/../../../arm-none-eabi/lib/libc.a(lib_a-freer.o)
 .bss           0x0000000000000000        0x0 /usr/lib/gcc/arm-none-eabi/7.3.1/../../../arm-none-eabi/lib/libc.a(lib_a-freer.o)
 .text          0x0000000000000000      0x124 /usr/lib/gcc/arm-none-eabi/7.3.1/../../../arm-none-eabi/lib/libc.a(lib_a-reent.o)
 .data          0x0000000000000000        0x0 /usr/lib/gcc/arm-none-eabi/7.3.1/../../../arm-none-eabi/lib/libc.a(lib_a-reent.o)
 .bss           0x0000000000000000        0x0 /usr/lib/gcc/arm-none-eabi/7.3.1/../../../arm-none-eabi/lib/libc.a(lib_a-reent.o)
 .text          0x0000000000000000        0x0 /usr/lib/gcc/arm-none-eabi/7.3.1/crtend.o
 .data          0x0000000000000000        0x0 /usr/lib/gcc/arm-none-eabi/7.3.1/crtend.o
 .bss           0x0000000000000000        0x0 /usr/lib/gcc/arm-none-eabi/7.3.1/crtend.o
 .eh_frame      0x0000000000000000        0x4 /usr/lib/gcc/arm-none-eabi/7.3.1/crtend.o
 .tm_clone_table
                0x0000000000000000        0x0 /usr/lib/gcc/arm-none-eabi/7.3.1/crtend.o
 .comment       0x0000000000000000       0x58 /usr/lib/gcc/arm-none-eabi/7.3.1/crtend.o
 .ARM.attributes
                0x0000000000000000       0x30 /usr/lib/gcc/arm-none-eabi/7.3.1/crtend.o
 .text          0x0000000000000000        0x0 /usr/lib/gcc/arm-none-eabi/7.3.1/crtn.o
 .data          0x0000000000000000        0x0 /usr/lib/gcc/arm-none-eabi/7.3.1/crtn.o
 .bss           0x0000000000000000        0x0 /usr/lib/gcc/arm-none-eabi/7.3.1/crtn.o

Memory Configuration

Name             Origin             Length             Attributes
RAM              0x0000000020000000 0x0000000000005000 xrw
FLASH            0x0000000008000000 0x0000000000020000 xr
FLASHB1          0x0000000000000000 0x0000000000000000 xr
EXTMEMB0         0x0000000000000000 0x0000000000000000 xr
EXTMEMB1         0x0000000000000000 0x0000000000000000 xr
EXTMEMB2         0x0000000000000000 0x0000000000000000 xr
EXTMEMB3         0x0000000000000000 0x0000000000000000 xr
*default*        0x0000000000000000 0xffffffffffffffff

Linker script and memory map

LOAD /usr/lib/gcc/arm-none-eabi/7.3.1/crti.o
LOAD /usr/lib/gcc/arm-none-eabi/7.3.1/crtbegin.o
LOAD /usr/lib/gcc/arm-none-eabi/7.3.1/../../../arm-none-eabi/lib/crt0.o
LOAD ./startup_stm32f10x_md.o
LOAD ./core_cm3.o
LOAD ./system_stm32f10x.o
LOAD ./misc.o
LOAD ./stm32f10x_dma.o
LOAD ./stm32f10x_gpio.o
LOAD ./stm32f10x_rcc.o
LOAD ./stm32f10x_spi.o
LOAD ./stm32f10x_tim.o
LOAD ./usb_mem.o
LOAD ./usb_regs.o
LOAD ./main.o
LOAD ./usb_protocol_Versaloon.o
LOAD ./vsfusbd_Versaloon.o
LOAD ./compiler_string.o
LOAD ./syscall.o
LOAD ./stlink.o
LOAD ./adi_v5p1.o
LOAD ./cm_common.o
LOAD ./app_interfaces.o
LOAD ./GPIO.o
LOAD ./CLKO.o
LOAD ./USART.o
LOAD ./SPI.o
LOAD ./SDIO.o
LOAD ./JTAG_TAP.o
LOAD ./SWD.o
LOAD ./SWIM.o
LOAD ./DUSI.o
LOAD ./MicroWire.o
LOAD ./PowerExt.o
LOAD ./IIC.o
LOAD ./C2.o
LOAD ./ISSP.o
LOAD ./LPC_ICP.o
LOAD ./MSP430_JTAG.o
LOAD ./BDM.o
LOAD ./PWM.o
LOAD ./EBI.o
LOAD ./ADC.o
LOAD ./interfaces.o
LOAD ./core.o
LOAD ./STM32_CLKO.o
LOAD ./STM32_GPIO.o
LOAD ./STM32_USBD.o
LOAD ./STM32_SPI.o
LOAD ./STM32_TIM.o
LOAD ./STM32_EINT.o
LOAD ./STM32_ADC.o
LOAD ./STM32_USART.o
LOAD ./STM32_EBI.o
LOAD ./STM32_FLASH.o
LOAD ./STM32_SDIO.o
LOAD ./usart_stream.o
LOAD ./stream.o
LOAD ./mal.o
LOAD ./vsf_usbd.o
LOAD ./vsfusbd_CDC.o
LOAD ./vsfusbd_CDCACM.o
LOAD ./vsfusbd_HID.o
LOAD ./vsfusbd_MSC_BOT.o
LOAD ./SCSI.o
LOAD ./buffer.o
LOAD ./fakefat32.o
LOAD ./crc.o
LOAD ./USB_TO_XXX.o
LOAD ./USB_TO_CLKO.o
LOAD ./USB_TO_USART.o
LOAD ./USB_TO_SPI.o
LOAD ./USB_TO_IIC.o
LOAD ./USB_TO_GPIO.o
LOAD ./USB_TO_PWM.o
LOAD ./USB_TO_ADC.o
LOAD ./USB_TO_DAC.o
LOAD ./USB_TO_POWER.o
LOAD ./USB_TO_C2.o
LOAD ./USB_TO_ISSP.o
LOAD ./USB_TO_LPCICP.o
LOAD ./USB_TO_MSP430_JTAG.o
LOAD ./USB_TO_JTAG_HL.o
LOAD ./USB_TO_SWD.o
LOAD ./USB_TO_JTAG_LL.o
LOAD ./USB_TO_SWIM.o
LOAD ./USB_TO_JTAG_RAW.o
LOAD ./USB_TO_BDM.o
LOAD ./USB_TO_DUSI.o
LOAD ./USB_TO_MICROWIRE.o
LOAD ./USB_TO_EBI.o
LOAD ./CommandProcessor.o
START GROUP
LOAD /usr/lib/gcc/arm-none-eabi/7.3.1/libgcc.a
LOAD /usr/lib/gcc/arm-none-eabi/7.3.1/../../../arm-none-eabi/lib/libc.a
END GROUP
LOAD /usr/lib/gcc/arm-none-eabi/7.3.1/crtend.o
LOAD /usr/lib/gcc/arm-none-eabi/7.3.1/crtn.o
                0x0000000000000400                _Stack_Size = 0x400
                0x0000000000000000                _Heap_Size = 0x0
                [!provide]                        PROVIDE (Undefined_Handler = 0x0)
                [!provide]                        PROVIDE (SWI_Handler = 0x0)
                [!provide]                        PROVIDE (IRQ_Handler = 0x0)
                [!provide]                        PROVIDE (Prefetch_Handler = 0x0)
                [!provide]                        PROVIDE (Abort_Handler = 0x0)
                [!provide]                        PROVIDE (FIQ_Handler = 0x0)
                [!provide]                        PROVIDE (NMIException = 0x0)
                [!provide]                        PROVIDE (HardFaultException = 0x0)
                [!provide]                        PROVIDE (MemManageException = 0x0)
                [!provide]                        PROVIDE (BusFaultException = 0x0)
                [!provide]                        PROVIDE (UsageFaultException = 0x0)
                [!provide]                        PROVIDE (SVCHandler = 0x0)
                [!provide]                        PROVIDE (DebugMonitor = 0x0)
                [!provide]                        PROVIDE (PendSVC = 0x0)
                [!provide]                        PROVIDE (SysTickHandler = 0x0)
                [!provide]                        PROVIDE (WWDG_IRQHandler = 0x0)
                [!provide]                        PROVIDE (PVD_IRQHandler = 0x0)
                [!provide]                        PROVIDE (TAMPER_IRQHandler = 0x0)
                [!provide]                        PROVIDE (RTC_IRQHandler = 0x0)
                [!provide]                        PROVIDE (FLASH_IRQHandler = 0x0)
                [!provide]                        PROVIDE (RCC_IRQHandler = 0x0)
                [!provide]                        PROVIDE (EXTI0_IRQHandler = 0x0)
                [!provide]                        PROVIDE (EXTI1_IRQHandler = 0x0)
                [!provide]                        PROVIDE (EXTI2_IRQHandler = 0x0)
                [!provide]                        PROVIDE (EXTI3_IRQHandler = 0x0)
                [!provide]                        PROVIDE (EXTI4_IRQHandler = 0x0)
                [!provide]                        PROVIDE (DMAChannel1_IRQHandler = 0x0)
                [!provide]                        PROVIDE (DMAChannel2_IRQHandler = 0x0)
                [!provide]                        PROVIDE (DMAChannel3_IRQHandler = 0x0)
                [!provide]                        PROVIDE (DMAChannel4_IRQHandler = 0x0)
                [!provide]                        PROVIDE (DMAChannel5_IRQHandler = 0x0)
                [!provide]                        PROVIDE (DMAChannel6_IRQHandler = 0x0)
                [!provide]                        PROVIDE (DMAChannel7_IRQHandler = 0x0)
                [!provide]                        PROVIDE (ADC_IRQHandler = 0x0)
                [!provide]                        PROVIDE (USB_HP_CAN_TX_IRQHandler = 0x0)
                [!provide]                        PROVIDE (USB_LP_CAN_RX0_IRQHandler = 0x0)
                [!provide]                        PROVIDE (CAN_RX1_IRQHandler = 0x0)
                [!provide]                        PROVIDE (CAN_SCE_IRQHandler = 0x0)
                [!provide]                        PROVIDE (EXTI9_5_IRQHandler = 0x0)
                [!provide]                        PROVIDE (TIM1_BRK_IRQHandler = 0x0)
                [!provide]                        PROVIDE (TIM1_UP_IRQHandler = 0x0)
                [!provide]                        PROVIDE (TIM1_TRG_COM_IRQHandler = 0x0)
                [!provide]                        PROVIDE (TIM1_CC_IRQHandler = 0x0)
                [!provide]                        PROVIDE (TIM2_IRQHandler = 0x0)
                [!provide]                        PROVIDE (TIM3_IRQHandler = 0x0)
                [!provide]                        PROVIDE (TIM4_IRQHandler = 0x0)
                [!provide]                        PROVIDE (I2C1_EV_IRQHandler = 0x0)
                [!provide]                        PROVIDE (I2C1_ER_IRQHandler = 0x0)
                [!provide]                        PROVIDE (I2C2_EV_IRQHandler = 0x0)
                [!provide]                        PROVIDE (I2C2_ER_IRQHandler = 0x0)
                [!provide]                        PROVIDE (SPI1_IRQHandler = 0x0)
                [!provide]                        PROVIDE (SPI2_IRQHandler = 0x0)
                [!provide]                        PROVIDE (USART1_IRQHandler = 0x0)
                [!provide]                        PROVIDE (USART2_IRQHandler = 0x0)
                [!provide]                        PROVIDE (USART3_IRQHandler = 0x0)
                [!provide]                        PROVIDE (EXTI15_10_IRQHandler = 0x0)
                [!provide]                        PROVIDE (RTCAlarm_IRQHandler = 0x0)
                [!provide]                        PROVIDE (USBWakeUp_IRQHandler = 0x0)
                0x0000000042000000                PERIPH_BB_BASE = 0x42000000
                0x0000000022000000                SRAM_BB_BASE = 0x22000000
                0x0000000020000000                SRAM_BASE = 0x20000000
                0x0000000040000000                PERIPH_BASE = 0x40000000
                [!provide]                        PROVIDE (FLASH_BASE = 0x40022000)
                [!provide]                        PROVIDE (OB_BASE = 0x1ffff800)
                0x0000000040000000                APB1PERIPH_BASE = PERIPH_BASE
                0x0000000040010000                APB2PERIPH_BASE = (PERIPH_BASE + 0x10000)
                0x0000000040020000                AHBPERIPH_BASE = (PERIPH_BASE + 0x20000)
                [!provide]                        PROVIDE (TIM2 = (APB1PERIPH_BASE + 0x0))
                [!provide]                        PROVIDE (TIM3 = (APB1PERIPH_BASE + 0x400))
                [!provide]                        PROVIDE (TIM4 = (APB1PERIPH_BASE + 0x800))
                [!provide]                        PROVIDE (RTC = (APB1PERIPH_BASE + 0x2800))
                [!provide]                        PROVIDE (WWDG = (APB1PERIPH_BASE + 0x2c00))
                [!provide]                        PROVIDE (IWDG = (APB1PERIPH_BASE + 0x3000))
                [!provide]                        PROVIDE (SPI2 = (APB1PERIPH_BASE + 0x3800))
                [!provide]                        PROVIDE (USART2 = (APB1PERIPH_BASE + 0x4400))
                [!provide]                        PROVIDE (USART3 = (APB1PERIPH_BASE + 0x4800))
                [!provide]                        PROVIDE (I2C1 = (APB1PERIPH_BASE + 0x5400))
                [!provide]                        PROVIDE (I2C2 = (APB1PERIPH_BASE + 0x5800))
                [!provide]                        PROVIDE (CAN = (APB1PERIPH_BASE + 0x6400))
                [!provide]                        PROVIDE (BKP = (APB1PERIPH_BASE + 0x6c00))
                [!provide]                        PROVIDE (PWR = (APB1PERIPH_BASE + 0x7000))
                [!provide]                        PROVIDE (AFIO = (APB2PERIPH_BASE + 0x0))
                [!provide]                        PROVIDE (EXTI = (APB2PERIPH_BASE + 0x400))
                [!provide]                        PROVIDE (GPIOA = (APB2PERIPH_BASE + 0x800))
                [!provide]                        PROVIDE (GPIOB = (APB2PERIPH_BASE + 0xc00))
                [!provide]                        PROVIDE (GPIOC = (APB2PERIPH_BASE + 0x1000))
                [!provide]                        PROVIDE (GPIOD = (APB2PERIPH_BASE + 0x1400))
                [!provide]                        PROVIDE (GPIOE = (APB2PERIPH_BASE + 0x1800))
                [!provide]                        PROVIDE (ADC1 = (APB2PERIPH_BASE + 0x2400))
                [!provide]                        PROVIDE (ADC2 = (APB2PERIPH_BASE + 0x2800))
                [!provide]                        PROVIDE (TIM1 = (APB2PERIPH_BASE + 0x2c00))
                [!provide]                        PROVIDE (SPI1 = (APB2PERIPH_BASE + 0x3000))
                [!provide]                        PROVIDE (USART1 = (APB2PERIPH_BASE + 0x3800))
                [!provide]                        PROVIDE (DMA = (AHBPERIPH_BASE + 0x0))
                [!provide]                        PROVIDE (DMA_Channel1 = (AHBPERIPH_BASE + 0x8))
                [!provide]                        PROVIDE (DMA_Channel2 = (AHBPERIPH_BASE + 0x1c))
                [!provide]                        PROVIDE (DMA_Channel3 = (AHBPERIPH_BASE + 0x30))
                [!provide]                        PROVIDE (DMA_Channel4 = (AHBPERIPH_BASE + 0x44))
                [!provide]                        PROVIDE (DMA_Channel5 = (AHBPERIPH_BASE + 0x58))
                [!provide]                        PROVIDE (DMA_Channel6 = (AHBPERIPH_BASE + 0x6c))
                [!provide]                        PROVIDE (DMA_Channel7 = (AHBPERIPH_BASE + 0x80))
                [!provide]                        PROVIDE (RCC = (AHBPERIPH_BASE + 0x1000))
                0x00000000e000e000                SCS_BASE = 0xe000e000
                [!provide]                        PROVIDE (SysTick = (SCS_BASE + 0x10))
                [!provide]                        PROVIDE (NVIC = (SCS_BASE + 0x100))
                [!provide]                        PROVIDE (SCB = (SCS_BASE + 0xd00))
                0x0000000020005000                _estack = 0x20005000

.isr_vector     0x0000000008000000      0x10c
                0x0000000008000000                . = ALIGN (0x4)
 *(.isr_vector)
 .isr_vector    0x0000000008000000      0x10c ./startup_stm32f10x_md.o
                0x0000000008000000                g_pfnVectors
                0x000000000800010c                . = ALIGN (0x4)

.flashtext      0x000000000800010c        0x0
                0x000000000800010c                . = ALIGN (0x4)
 *(.flashtext)
                0x000000000800010c                . = ALIGN (0x4)

.text           0x0000000008000110     0xdd7c
                0x0000000008000110                . = ALIGN (0x4)
 *(.text)
 .text          0x0000000008000110       0x8a ./core_cm3.o
                0x0000000008000110                __get_PSP
                0x0000000008000118                __set_PSP
                0x000000000800011e                __get_MSP
                0x0000000008000126                __set_MSP
                0x000000000800012c                __get_BASEPRI
                0x0000000008000132                __set_BASEPRI
                0x0000000008000138                __get_PRIMASK
                0x000000000800013e                __set_PRIMASK
                0x0000000008000144                __get_FAULTMASK
                0x000000000800014a                __set_FAULTMASK
                0x0000000008000150                __get_CONTROL
                0x0000000008000156                __set_CONTROL
                0x000000000800015c                __REV
                0x0000000008000160                __REV16
                0x0000000008000164                __REVSH
                0x0000000008000168                __RBIT
                0x000000000800016e                __LDREXB
                0x0000000008000176                __LDREXH
                0x000000000800017e                __LDREXW
                0x0000000008000184                __STREXB
                0x000000000800018c                __STREXH
                0x0000000008000194                __STREXW
 *fill*         0x000000000800019a        0x2 
 .text          0x000000000800019c       0xb0 ./misc.o
                0x000000000800019c                NVIC_PriorityGroupConfig
                0x00000000080001b0                NVIC_Init
                0x0000000008000208                NVIC_SetVectorTable
                0x000000000800021c                NVIC_SystemLPConfig
                0x0000000008000234                SysTick_CLKSourceConfig
 .text          0x000000000800024c      0x1a8 ./stm32f10x_dma.o
                0x000000000800024c                DMA_DeInit
                0x000000000800033c                DMA_Init
                0x0000000008000378                DMA_StructInit
                0x0000000008000392                DMA_Cmd
                0x00000000080003a4                DMA_ITConfig
                0x00000000080003b4                DMA_GetCurrDataCounter
                0x00000000080003ba                DMA_GetFlagStatus
                0x00000000080003d8                DMA_ClearFlag
                0x00000000080003ec                DMA_GetITStatus
                0x00000000080003f0                DMA_ClearITPendingBit
 .text          0x00000000080003f4      0x288 ./stm32f10x_gpio.o
                0x00000000080003f4                GPIO_DeInit
                0x00000000080004ac                GPIO_AFIODeInit
                0x00000000080004c2                GPIO_Init
                0x0000000008000568                GPIO_StructInit
                0x0000000008000578                GPIO_ReadInputDataBit
                0x0000000008000584                GPIO_ReadInputData
                0x000000000800058a                GPIO_ReadOutputDataBit
                0x0000000008000596                GPIO_ReadOutputData
                0x000000000800059c                GPIO_SetBits
                0x00000000080005a0                GPIO_ResetBits
                0x00000000080005a4                GPIO_WriteBit
                0x00000000080005ae                GPIO_Write
                0x00000000080005b2                GPIO_PinLockConfig
                0x00000000080005c2                GPIO_EventOutputConfig
                0x00000000080005dc                GPIO_EventOutputCmd
                0x00000000080005e8                GPIO_PinRemapConfig
                0x0000000008000648                GPIO_EXTILineConfig
                0x0000000008000672                GPIO_ETH_MediaInterfaceConfig
 .text          0x000000000800067c      0x33c ./stm32f10x_rcc.o
                0x000000000800067c                RCC_DeInit
                0x00000000080006bc                RCC_HSEConfig
                0x00000000080006f4                RCC_AdjustHSICalibrationValue
                0x0000000008000708                RCC_HSICmd
                0x0000000008000714                RCC_PLLConfig
                0x0000000008000728                RCC_PLLCmd
                0x0000000008000734                RCC_SYSCLKConfig
                0x0000000008000748                RCC_GetSYSCLKSource
                0x0000000008000758                RCC_HCLKConfig
                0x000000000800076c                RCC_PCLK1Config
                0x0000000008000780                RCC_PCLK2Config
                0x0000000008000794                RCC_ITConfig
                0x00000000080007ac                RCC_USBCLKConfig
                0x00000000080007b8                RCC_ADCCLKConfig
                0x00000000080007cc                RCC_LSEConfig
                0x00000000080007ec                RCC_LSICmd
                0x00000000080007f8                RCC_RTCCLKConfig
                0x0000000008000808                RCC_RTCCLKCmd
                0x0000000008000814                RCC_GetClocksFreq
                0x0000000008000894                RCC_AHBPeriphClockCmd
                0x00000000080008ac                RCC_APB2PeriphClockCmd
                0x00000000080008c4                RCC_APB1PeriphClockCmd
                0x00000000080008dc                RCC_APB2PeriphResetCmd
                0x00000000080008f4                RCC_APB1PeriphResetCmd
                0x000000000800090c                RCC_BackupResetCmd
                0x0000000008000918                RCC_ClockSecuritySystemCmd
                0x0000000008000924                RCC_MCOConfig
                0x0000000008000930                RCC_GetFlagStatus
                0x0000000008000958                RCC_WaitForHSEStartUp
                0x0000000008000988                RCC_ClearFlag
                0x0000000008000998                RCC_GetITStatus
                0x00000000080009ac                RCC_ClearITPendingBit
 .text          0x00000000080009b8      0x290 ./stm32f10x_spi.o
                0x00000000080009b8                SPI_I2S_DeInit
                0x0000000008000a1c                SPI_Init
                0x0000000008000a58                I2S_Init
                0x0000000008000af2                SPI_StructInit
                0x0000000008000b0a                I2S_StructInit
                0x0000000008000b18                SPI_Cmd
                0x0000000008000b2e                I2S_Cmd
                0x0000000008000b44                SPI_I2S_ITConfig
                0x0000000008000b5c                SPI_I2S_DMACmd
                0x0000000008000b6c                SPI_I2S_SendData
                0x0000000008000b70                SPI_I2S_ReceiveData
                0x0000000008000b74                SPI_NSSInternalSoftwareConfig
                0x0000000008000b8e                SPI_SSOutputCmd
                0x0000000008000ba4                SPI_DataSizeConfig
                0x0000000008000bb8                SPI_TransmitCRC
                0x0000000008000bc2                SPI_CalculateCRC
                0x0000000008000bd8                SPI_GetCRC
                0x0000000008000be4                SPI_GetCRCPolynomial
                0x0000000008000be8                SPI_BiDirectionalLineConfig
                0x0000000008000c00                SPI_I2S_GetFlagStatus
                0x0000000008000c0c                SPI_I2S_ClearFlag
                0x0000000008000c14                SPI_I2S_GetITStatus
                0x0000000008000c38                SPI_I2S_ClearITPendingBit
 .text          0x0000000008000c48      0xb40 ./stm32f10x_tim.o
                0x0000000008000cba                TIM_DeInit
                0x0000000008000e84                TIM_TimeBaseInit
                0x0000000008000f18                TIM_OC1Init
                0x0000000008000f9c                TIM_OC2Init
                0x000000000800101c                TIM_OC3Init
                0x0000000008001098                TIM_OC4Init
                0x0000000008001100                TIM_BDTRConfig
                0x0000000008001120                TIM_TimeBaseStructInit
                0x0000000008001132                TIM_OCStructInit
                0x0000000008001146                TIM_ICStructInit
                0x0000000008001156                TIM_BDTRStructInit
                0x0000000008001168                TIM_Cmd
                0x000000000800117e                TIM_CtrlPWMOutputs
                0x0000000008001194                TIM_ITConfig
                0x00000000080011a4                TIM_GenerateEvent
                0x00000000080011a8                TIM_DMAConfig
                0x00000000080011b0                TIM_DMACmd
                0x00000000080011b4                TIM_InternalClockConfig
                0x00000000080011c2                TIM_ITRxExternalClockConfig
                0x00000000080011da                TIM_TIxExternalClockConfig
                0x000000000800120c                TIM_ETRConfig
                0x0000000008001220                TIM_ETRClockMode1Config
                0x0000000008001238                TIM_ETRClockMode2Config
                0x0000000008001248                TIM_PrescalerConfig
                0x000000000800124e                TIM_CounterModeConfig
                0x000000000800125e                TIM_SelectInputTrigger
                0x000000000800126e                TIM_EncoderInterfaceConfig
                0x00000000080012a8                TIM_ForcedOC1Config
                0x00000000080012b8                TIM_ForcedOC2Config
                0x00000000080012cc                TIM_ForcedOC3Config
                0x00000000080012dc                TIM_ForcedOC4Config
                0x00000000080012f0                TIM_ARRPreloadConfig
                0x0000000008001306                TIM_SelectCOM
                0x000000000800131c                TIM_SelectCCDMA
                0x0000000008001332                TIM_CCPreloadControl
                0x0000000008001348                TIM_OC1PreloadConfig
                0x0000000008001358                TIM_OC2PreloadConfig
                0x000000000800136c                TIM_OC3PreloadConfig
                0x000000000800137c                TIM_OC4PreloadConfig
                0x0000000008001390                TIM_OC1FastConfig
                0x00000000080013a0                TIM_OC2FastConfig
                0x00000000080013b4                TIM_OC3FastConfig
                0x00000000080013c4                TIM_OC4FastConfig
                0x00000000080013d8                TIM_ClearOC1Ref
                0x00000000080013e8                TIM_ClearOC2Ref
                0x00000000080013f8                TIM_ClearOC3Ref
                0x0000000008001408                TIM_ClearOC4Ref
                0x0000000008001418                TIM_OC1PolarityConfig
                0x0000000008001428                TIM_OC1NPolarityConfig
                0x0000000008001438                TIM_OC2PolarityConfig
                0x000000000800144c                TIM_OC2NPolarityConfig
                0x0000000008001460                TIM_OC3PolarityConfig
                0x0000000008001474                TIM_OC3NPolarityConfig
                0x0000000008001488                TIM_OC4PolarityConfig
                0x000000000800149c                TIM_CCxCmd
                0x00000000080014b8                TIM_CCxNCmd
                0x00000000080014d4                TIM_SelectOCxM
                0x0000000008001514                TIM_UpdateDisableConfig
                0x000000000800152a                TIM_UpdateRequestConfig
                0x0000000008001540                TIM_SelectHallSensor
                0x0000000008001556                TIM_SelectOnePulseMode
                0x000000000800156a                TIM_SelectOutputTrigger
                0x000000000800157e                TIM_SelectSlaveMode
                0x0000000008001592                TIM_SelectMasterSlaveMode
                0x00000000080015a6                TIM_SetCounter
                0x00000000080015aa                TIM_SetAutoreload
                0x00000000080015ae                TIM_SetCompare1
                0x00000000080015b2                TIM_SetCompare2
                0x00000000080015b6                TIM_SetCompare3
                0x00000000080015ba                TIM_SetCompare4
                0x00000000080015c0                TIM_SetIC1Prescaler
                0x00000000080015d4                TIM_SetIC2Prescaler
                0x00000000080015ec                TIM_PWMIConfig
                0x000000000800164c                TIM_SetIC3Prescaler
                0x0000000008001660                TIM_SetIC4Prescaler
                0x0000000008001678                TIM_ICInit
                0x0000000008001726                TIM_SetClockDivision
                0x000000000800173a                TIM_GetCapture1
                0x000000000800173e                TIM_GetCapture2
                0x0000000008001742                TIM_GetCapture3
                0x0000000008001746                TIM_GetCapture4
                0x000000000800174c                TIM_GetCounter
                0x0000000008001750                TIM_GetPrescaler
                0x0000000008001754                TIM_GetFlagStatus
                0x0000000008001760                TIM_ClearFlag
                0x0000000008001768                TIM_GetITStatus
                0x000000000800177e                TIM_ClearITPendingBit
 .text          0x0000000008001788       0x42 ./usb_mem.o
                0x0000000008001788                UserToPMABufferCopy
                0x00000000080017a6                PMAToUserBufferCopy
 *fill*         0x00000000080017ca        0x2 
 .text          0x00000000080017cc      0x6b8 ./usb_regs.o
                0x00000000080017cc                SetCNTR
                0x00000000080017d8                GetCNTR
                0x00000000080017e4                SetISTR
                0x00000000080017f0                GetISTR
                0x00000000080017fc                GetFNR
                0x0000000008001808                SetDADDR
                0x0000000008001814                GetDADDR
                0x0000000008001820                SetBTABLE
                0x0000000008001830                GetBTABLE
                0x000000000800183c                SetENDPOINT
                0x000000000800184a                GetENDPOINT
                0x000000000800185a                SetEPType
                0x0000000008001876                GetEPType
                0x0000000008001888                SetEPTxStatus
                0x00000000080018ba                SetEPRxStatus
                0x00000000080018ec                SetDouBleBuffEPStall
                0x0000000008001912                GetEPTxStatus
                0x0000000008001924                GetEPRxStatus
                0x0000000008001936                SetEPTxValid
                0x000000000800195c                SetEPRxValid
                0x0000000008001982                SetEP_KIND
                0x00000000080019a0                ClearEP_KIND
                0x00000000080019c0                Clear_Status_Out
                0x00000000080019c4                Set_Status_Out
                0x00000000080019c8                SetEPDoubleBuff
                0x00000000080019cc                ClearEPDoubleBuff
                0x00000000080019d0                GetTxStallStatus
                0x00000000080019ea                GetRxStallStatus
                0x0000000008001a04                ClearEP_CTR_RX
                0x0000000008001a20                ClearEP_CTR_TX
                0x0000000008001a3c                ToggleDTOG_RX
                0x0000000008001a5c                ToggleDTOG_TX
                0x0000000008001a7c                ClearDTOG_RX
                0x0000000008001aa2                ClearDTOG_TX
                0x0000000008001ac8                SetEPAddress
                0x0000000008001aea                GetEPAddress
                0x0000000008001afc                SetEPTxAddr
                0x0000000008001b1c                SetEPRxAddr
                0x0000000008001b3c                GetEPTxAddr
                0x0000000008001b58                GetEPRxAddr
                0x0000000008001b74                SetEPTxCount
                0x0000000008001b90                SetEPCountRxReg
                0x0000000008001bb6                SetEPRxCount
                0x0000000008001bf8                GetEPTxCount
                0x0000000008001c18                GetEPRxCount
                0x0000000008001c38                SetEPDblBuffAddr
                0x0000000008001c70                SetEPDblBuf0Addr
                0x0000000008001c74                SetEPDblBuf1Addr
                0x0000000008001c78                GetEPDblBuf0Addr
                0x0000000008001c7c                GetEPDblBuf1Addr
                0x0000000008001c80                SetEPDblBuffCount
                0x0000000008001d28                SetEPDblBuf0Count
                0x0000000008001d84                SetEPDblBuf1Count
                0x0000000008001de0                GetEPDblBuf0Count
                0x0000000008001de4                GetEPDblBuf1Count
                0x0000000008001de8                GetEPDblBufDir
                0x0000000008001e2c                FreeUserBuffer
                0x0000000008001e72                ToWord
                0x0000000008001e78                ByteSwap
 .text          0x0000000008001e84      0x220 ./usb_protocol_Versaloon.o
                0x0000000008001e84                VOM_set_line_coding
                0x0000000008001ee0                usb_protocol_init
                0x000000000800207c                usb_protocol_poll
 .text          0x00000000080020a4      0x1c8 ./vsfusbd_Versaloon.o
 .text          0x000000000800226c      0x152 ./compiler_string.o
                0x000000000800226c                strlen
                0x000000000800227c                strcmp
                0x0000000008002294                strcpy
                0x00000000080022ae                strncpy
                0x00000000080022d0                strchr
                0x00000000080022ea                strstr
                0x0000000008002316                strcat
                0x0000000008002334                strncat
                0x0000000008002358                strdup
                0x0000000008002370                memcpy
                0x0000000008002386                memcmp
                0x00000000080023aa                memset
 *fill*         0x00000000080023be        0x2 
 .text          0x00000000080023c0       0x40 ./syscall.o
                0x00000000080023c0                _sbrk
                0x00000000080023dc                _open
                0x00000000080023e2                _close
                0x00000000080023e6                _fstat
                0x00000000080023f0                _isatty
                0x00000000080023f4                _lseek
                0x00000000080023f8                _read
                0x00000000080023fc                _write
 .text          0x0000000008002400      0x264 ./app_interfaces.o
                0x0000000008002474                get_interface_name
                0x000000000800260c                GPIO_SetMode
                0x0000000008002654                interface_assert
 .text          0x0000000008002664      0x454 ./GPIO.o
                0x0000000008002664                gpio_init
                0x0000000008002670                gpio_fini
                0x0000000008002674                gpio_config
                0x000000000800285c                gpio_clear
                0x00000000080028d0                gpio_set
                0x0000000008002944                gpio_out
                0x0000000008002a0c                gpio_in
 .text          0x0000000008002ab8       0x8c ./CLKO.o
                0x0000000008002ab8                clko_init
                0x0000000008002ad4                clko_fini
                0x0000000008002af0                clko_config
                0x0000000008002b0c                clko_enable
                0x0000000008002b28                clko_disable
 .text          0x0000000008002b44       0xec ./USART.o
                0x0000000008002b44                usart_init
                0x0000000008002b58                usart_fini
                0x0000000008002b6c                usart_config
                0x0000000008002b88                usart_send
                0x0000000008002bb0                usart_receive
                0x0000000008002bd8                usart_status
                0x0000000008002c1c                usart_poll
 .text          0x0000000008002c30      0x2b8 ./SPI.o
                0x0000000008002d3c                spi_init
                0x0000000008002d48                spi_fini
                0x0000000008002d68                spi_config
                0x0000000008002e30                spi_select
                0x0000000008002e50                spi_deselect
                0x0000000008002e70                spi_io
 .text          0x0000000008002ee8      0xbfc ./JTAG_TAP.o
                0x00000000080036f0                jtaghl_init
                0x00000000080036fc                jtaghl_fini
                0x0000000008003706                jtaghl_config_speed
                0x0000000008003716                jtaghl_config_daisychain
                0x0000000008003738                jtaghl_config
                0x0000000008003758                jtaghl_tms
                0x00000000080037a4                jtaghl_runtest
                0x00000000080037e6                jtaghl_register_callback
                0x00000000080037fc                jtaghl_ir
                0x00000000080038dc                jtaghl_dr
                0x00000000080039a4                jtagll_init
                0x00000000080039a8                jtagll_fini
                0x00000000080039ac                jtagll_config
                0x00000000080039b0                jtagll_tms
                0x00000000080039e0                jtagll_tms_clocks
                0x0000000008003a08                jtagll_scan
                0x0000000008003aa4                jtagraw_init
                0x0000000008003aa8                jtagraw_fini
                0x0000000008003aac                jtagraw_config
                0x0000000008003abc                jtagraw_execute
 .text          0x0000000008003ae4      0x4b8 ./SWD.o
                0x0000000008003ae4                SWD_SeqIn_NoDelay
                0x0000000008003b44                SWD_SeqOut_NoDelay
                0x0000000008003b90                SWD_SeqIn_Delay
                0x0000000008003c1c                SWD_SeqOut_Delay
                0x0000000008003c9c                SWD_StopClock
                0x0000000008003cb8                SWD_Transaction
                0x0000000008003df8                SWD_Init
                0x0000000008003e20                SWD_Fini
                0x0000000008003e44                SWD_SetDelay
                0x0000000008003e74                SWD_SetTurnaround
                0x0000000008003e84                SWD_SetRetryCount
                0x0000000008003e90                swd_init
                0x0000000008003e9c                swd_fini
                0x0000000008003eb0                swd_config
                0x0000000008003edc                swd_seqout
                0x0000000008003f24                swd_seqin
                0x0000000008003f4c                swd_transact
 .text          0x0000000008003f9c      0x830 ./SWIM.o
                0x0000000008004094                swim_init
                0x00000000080040a0                swim_fini
                0x0000000008004128                swim_config
                0x0000000008004298                swim_srst
                0x00000000080042b4                swim_wotf
                0x0000000008004372                swim_rotf
                0x000000000800452c                swim_sync
                0x00000000080045f0                swim_enable
 .text          0x00000000080047cc      0x10c ./DUSI.o
                0x00000000080047cc                dusi_init
                0x00000000080047f0                dusi_fini
                0x0000000008004814                dusi_config
                0x000000000800487c                dusi_io
 .text          0x00000000080048d8      0x264 ./MicroWire.o
                0x0000000008004938                microwire_init
                0x0000000008004944                microwire_fini
                0x0000000008004984                microwire_config
                0x00000000080049e8                microwire_transport
                0x0000000008004ae4                microwire_poll
 .text          0x0000000008004b3c      0x1c8 ./PowerExt.o
                0x0000000008004b3c                PWREXT_Acquire
                0x0000000008004b74                PWREXT_Release
                0x0000000008004ba0                PWREXT_ForceRelease
                0x0000000008004bb4                PWREXT_GetState
                0x0000000008004bc0                target_voltage_get
                0x0000000008004bdc                target_voltage_poll
                0x0000000008004c78                target_voltage_set
 .text          0x0000000008004d04      0x4ac ./IIC.o
                0x0000000008004ec4                EMIIC_USBTOXXX_SetParameter
                0x0000000008004eec                EMIIC_USBTOXXX_Send
                0x0000000008004f56                EMIIC_USBTOXXX_Receive
                0x0000000008005088                EMIIC_USBTOXXX_Init
                0x00000000080050b0                EMIIC_USBTOXXX_DeInit
                0x00000000080050b4                iic_init
                0x00000000080050dc                iic_fini
                0x0000000008005114                iic_config
                0x0000000008005142                iic_read
                0x000000000800517c                iic_write
 .text          0x00000000080051b0      0x410 ./C2.o
                0x00000000080051b0                C2_Init
                0x00000000080051e8                C2_Fini
                0x000000000800520c                C2_ReadAddr
                0x00000000080052cc                C2_WriteAddr
                0x0000000008005374                C2_ReadData
                0x0000000008005460                C2_WriteData
                0x0000000008005534                c2_init
                0x0000000008005548                c2_fini
                0x000000000800555c                c2_addr_write
                0x0000000008005572                c2_addr_read
                0x0000000008005588                c2_data_read
                0x00000000080055a4                c2_data_write
 .text          0x00000000080055c0      0x404 ./ISSP.o
                0x000000000800562c                ISSP_Vector
                0x00000000080056e0                ISSP_Vector_0s
                0x0000000008005710                issp_enter_program_mode
                0x0000000008005830                issp_leave_program_mode
                0x00000000080058a0                issp_wait_and_poll
                0x0000000008005928                issp_fini
                0x0000000008005968                issp_init
                0x0000000008005974                issp_vector
 .text          0x00000000080059c4      0x28c ./LPC_ICP.o
                0x0000000008005aa4                lpcicp_init
                0x0000000008005af0                lpcicp_fini
                0x0000000008005b2c                lpcicp_enter_program_mode
                0x0000000008005bac                lpcicp_in
                0x0000000008005bc6                lpcicp_out
                0x0000000008005be0                lpcicp_poll_ready
 .text          0x0000000008005c50      0x4a0 ./MSP430_JTAG.o
                0x0000000008005d6c                msp430jtag_init
                0x0000000008005d78                msp430jtag_fini
                0x0000000008005db8                msp430jtag_config
                0x0000000008005e98                msp430jtag_ir
                0x0000000008005f30                msp430jtag_dr
                0x0000000008005f5c                msp430jtag_tclk
                0x0000000008005f7c                msp430jtag_tclk_strobe
                0x0000000008005fbc                msp430jtag_reset
                0x0000000008006078                msp430jtag_poll
 .text          0x00000000080060f0      0x60c ./BDM.o
                0x000000000800616c                bdm_init
                0x000000000800636c                bdm_fini
                0x0000000008006380                bdm_sync
                0x00000000080064a0                bdm_transact
 .text          0x00000000080066fc      0x404 ./PWM.o
                0x00000000080066fc                pwm_init
                0x000000000800680c                pwm_fini
                0x000000000800688c                pwm_config_freq
                0x00000000080068e4                pwm_config_mode
                0x0000000008006a04                pwm_out
                0x0000000008006a84                pwm_in
 .text          0x0000000008006b00       0x68 ./ADC.o
                0x0000000008006b00                adc_init
                0x0000000008006b0c                adc_fini
                0x0000000008006b10                adc_config
                0x0000000008006b1c                adc_config_channel
                0x0000000008006b28                adc_get_max_value
                0x0000000008006b2e                adc_calibrate
                0x0000000008006b3a                adc_start
                0x0000000008006b46                adc_isready
                0x0000000008006b52                adc_get
                0x0000000008006b56                adc_sample
 .text          0x0000000008006b68        0x4 ./interfaces.o
                0x0000000008006b68                peripheral_commit
 .text          0x0000000008006b6c      0x404 ./core.o
                0x0000000008006b6c                stm32_interface_get_info
                0x0000000008006b78                stm32_interface_fini
                0x0000000008006b7c                stm32_interface_reset
                0x0000000008006b98                stm32_interface_set_stack
                0x0000000008006ba2                stm32_interface_init
                0x0000000008006d60                stm32_uid_get
                0x0000000008006d80                stm32_delay_init
                0x0000000008006dc8                stm32_delay_delayus
                0x0000000008006de8                stm32_delay_delayms
                0x0000000008006e04                stm32_tickclk_start
                0x0000000008006e18                stm32_tickclk_stop
                0x0000000008006e2c                stm32_tickclk_get_count
                0x0000000008006e50                stm32_tickclk_init
                0x0000000008006f50                stm32_tickclk_fini
 .text          0x0000000008006f70      0x104 ./STM32_CLKO.o
                0x0000000008006f70                stm32_clko_init
                0x0000000008006fa4                stm32_clko_fini
                0x0000000008006fcc                stm32_clko_config
                0x0000000008007044                stm32_clko_enable
                0x000000000800705c                stm32_clko_disable
 .text          0x0000000008007074      0x1c4 ./STM32_GPIO.o
                0x0000000008007074                stm32_gpio_init
                0x000000000800708c                stm32_gpio_fini
                0x00000000080070ac                stm32_gpio_config_pin
                0x0000000008007104                stm32_gpio_config
                0x00000000080071da                stm32_gpio_set
                0x00000000080071ea                stm32_gpio_clear
                0x00000000080071fa                stm32_gpio_out
                0x0000000008007214                stm32_gpio_in
                0x0000000008007228                stm32_gpio_get
 .text          0x0000000008007238      0x914 ./STM32_USBD.o
                0x0000000008007298                stm32_usbd_init
                0x0000000008007354                stm32_usbd_fini
                0x000000000800736c                stm32_usbd_reset
                0x0000000008007370                stm32_usbd_connect
                0x0000000008007374                stm32_usbd_disconnect
                0x0000000008007378                stm32_usbd_set_address
                0x0000000008007386                stm32_usbd_get_address
                0x0000000008007394                stm32_usbd_suspend
                0x0000000008007398                stm32_usbd_resume
                0x000000000800739c                stm32_usbd_lowpower
                0x00000000080073a0                stm32_usbd_get_frame_number
                0x00000000080073ac                stm32_usbd_prepare_buffer
                0x00000000080073bc                stm32_usbd_ep_reset
                0x00000000080073c0                stm32_usbd_ep_set_type
                0x000000000800741c                stm32_usbd_ep_is_IN_dbuffer
                0x0000000008007438                stm32_usbd_ep_switch_IN_buffer
                0x0000000008007454                stm32_usbd_ep_set_IN_epsize
                0x00000000080074b4                stm32_usbd_ep_get_IN_epsize
                0x00000000080074d0                stm32_usbd_ep_set_IN_dbuffer
                0x0000000008007550                stm32_usbd_ep_set_IN_stall
                0x000000000800756c                stm32_usbd_ep_clear_IN_stall
                0x0000000008007588                stm32_usbd_ep_is_IN_stall
                0x00000000080075a6                stm32_usbd_ep_reset_IN_toggle
                0x00000000080075c0                stm32_usbd_ep_toggle_IN_toggle
                0x00000000080075da                stm32_usbd_ep_set_IN_count
                0x0000000008007630                stm32_usbd_ep_write_IN_buffer
                0x0000000008007680                stm32_usbd_ep_is_OUT_dbuffer
                0x000000000800769c                stm32_usbd_ep_switch_OUT_buffer
                0x00000000080076b8                stm32_usbd_ep_set_OUT_epsize
                0x0000000008007724                stm32_usbd_ep_get_OUT_epsize
                0x0000000008007740                stm32_usbd_ep_set_OUT_dbuffer
                0x00000000080077c8                stm32_usbd_ep_set_OUT_stall
                0x00000000080077e6                stm32_usbd_ep_clear_OUT_stall
                0x000000000800780e                stm32_usbd_ep_is_OUT_stall
                0x000000000800782c                stm32_usbd_ep_reset_OUT_toggle
                0x0000000008007846                stm32_usbd_ep_toggle_OUT_toggle
                0x0000000008007860                stm32_usbd_ep_get_OUT_count
                0x00000000080078a4                stm32_usbd_ep_read_OUT_buffer
                0x00000000080078f4                stm32_usbd_get_setup
                0x0000000008007916                stm32_usbd_ep_enable_OUT
                0x0000000008007934                CTR_LP
                0x0000000008007a28                CTR_HP
                0x0000000008007a94                USB_Istr
                0x0000000008007b38                stm32_usbd_poll
                0x0000000008007b42                USB_LP_CAN1_RX0_IRQHandler
                0x0000000008007b46                USB_HP_CAN1_TX_IRQHandler
                0x0000000008007b4a                USBWakeUp_IRQHandler
 .text          0x0000000008007b4c      0x454 ./STM32_SPI.o
                0x0000000008007b4c                stm32_spi_init
                0x0000000008007bc8                stm32_spi_fini
                0x0000000008007c58                stm32_spi_enable
                0x0000000008007c74                stm32_spi_disable
                0x0000000008007c94                stm32_spi_get_ability
                0x0000000008007cce                stm32_spi_config
                0x0000000008007e38                stm32_spi_select
                0x0000000008007e3e                stm32_spi_deselect
                0x0000000008007e44                stm32_spi_io_tx
                0x0000000008007e58                stm32_spi_io_tx_isready
                0x0000000008007e74                stm32_spi_io_rx_isready
                0x0000000008007e8c                stm32_spi_io_rx
                0x0000000008007ea0                stm32_spi_io
                0x0000000008007f18                stm32_spi_io_dma_start
                0x0000000008007f98                stm32_spi_io_dma_isready
                0x0000000008007f9c                stm32_spi_io_dma_end
 .text          0x0000000008007fa0      0x118 ./STM32_TIM.o
                0x0000000008007fa0                stm32_timer_init
                0x0000000008008014                stm32_timer_fini
                0x0000000008008028                stm32_timer_config
                0x000000000800802c                stm32_timer_start
                0x0000000008008044                stm32_timer_stop
                0x0000000008008060                stm32_timer_get_count
                0x0000000008008074                stm32_timer_set_count
                0x0000000008008088                stm32_timer_config_channel
                0x000000000800808c                stm32_timer_get_channel
                0x00000000080080a4                stm32_timer_set_channel
 .text          0x00000000080080b8      0x1b0 ./STM32_EINT.o
                0x00000000080080dc                stm32_eint_init
                0x000000000800810c                stm32_eint_fini
                0x0000000008008134                stm32_eint_config
                0x00000000080081b0                stm32_eint_enable
                0x00000000080081c8                stm32_eint_disable
                0x00000000080081e4                stm32_eint_trigger
                0x00000000080081fc                EXTI0_IRQHandler
                0x0000000008008200                EXTI1_IRQHandler
                0x0000000008008204                EXTI2_IRQHandler
                0x0000000008008208                EXTI3_IRQHandler
                0x000000000800820c                EXTI4_IRQHandler
                0x0000000008008210                EXTI9_5_IRQHandler
                0x000000000800823c                EXTI15_10_IRQHandler
 .text          0x0000000008008268      0x2b0 ./STM32_ADC.o
                0x0000000008008268                stm32_adc_init
                0x00000000080082e4                stm32_adc_fini
                0x0000000008008310                stm32_adc_config
                0x0000000008008360                stm32_adc_config_channel
                0x0000000008008470                stm32_adc_calibrate
                0x00000000080084a4                stm32_adc_get_max_value
                0x00000000080084aa                stm32_adc_start
                0x00000000080084cc                stm32_adc_isready
                0x00000000080084e4                stm32_adc_get
                0x00000000080084f4                stm32_adc_sample
 .text          0x0000000008008518      0x224 ./STM32_USART.o
                0x0000000008008518                stm32_usart_init
                0x0000000008008574                stm32_usart_fini
                0x00000000080085dc                stm32_usart_config
                0x0000000008008660                stm32_usart_config_callback
                0x00000000080086a8                stm32_usart_tx
                0x00000000080086bc                stm32_usart_tx_isready
                0x00000000080086d8                stm32_usart_rx
                0x00000000080086ec                stm32_usart_rx_isready
                0x0000000008008708                USART1_IRQHandler
 .text          0x000000000800873c      0x758 ./STM32_EBI.o
                0x0000000008008908                stm32_ebi_init
                0x00000000080089e0                stm32_ebi_fini
                0x0000000008008ab0                stm32_ebi_config_nor
                0x0000000008008ab6                stm32_ebi_config_sram
                0x0000000008008ad0                stm32_ebi_config_psram
                0x0000000008008ae8                stm32_ebi_config_nand
                0x0000000008008c40                stm32_ebi_config_sdram
                0x0000000008008c46                stm32_ebi_config_ddram
                0x0000000008008c4c                stm32_ebi_config_pccard
                0x0000000008008c5a                stm32_ebi_config
                0x0000000008008ca8                stm32_ebi_get_base_addr
                0x0000000008008cd6                stm32_ebi_isready
                0x0000000008008d20                stm32_ebi_read8
                0x0000000008008d36                stm32_ebi_write8
                0x0000000008008d4e                stm32_ebi_read16
                0x0000000008008d64                stm32_ebi_write16
                0x0000000008008d7c                stm32_ebi_read32
                0x0000000008008d80                stm32_ebi_write32
                0x0000000008008d82                stm32_ebi_readp32
                0x0000000008008d88                stm32_ebi_readp32_isready
                0x0000000008008d8e                stm32_ebi_writep32
                0x0000000008008d94                stm32_ebi_writep32_isready
                0x0000000008008d9a                stm32_ebi_read
                0x0000000008008e14                stm32_ebi_write
 .text          0x0000000008008e94      0x308 ./STM32_FLASH.o
                0x0000000008008e94                stm32_flash_init
                0x0000000008008ea0                stm32_flash_fini
                0x0000000008008ea4                stm32_flash_getcapacity
                0x0000000008008edc                stm32_flash_lock
                0x0000000008008f20                stm32_flash_unlock
                0x0000000008008f78                stm32_flash_read
                0x0000000008008f96                stm32_flash_read_isready
                0x0000000008008fa2                stm32_flash_write
                0x0000000008009018                stm32_flash_write_isready
                0x0000000008009024                stm32_flash_readpage
                0x000000000800904c                stm32_flash_readpage_isready
                0x0000000008009066                stm32_flash_erasepage
                0x00000000080090b0                stm32_flash_erasepage_isready
                0x00000000080090fc                stm32_flash_writepage
                0x0000000008009124                stm32_flash_writepage_isready
                0x0000000008009128                stm32_flash_protect
                0x0000000008009188                stm32_flash_isprotected
 .text          0x000000000800919c      0x2bc ./STM32_SDIO.o
                0x000000000800919c                stm32_sdio_fini
                0x00000000080091c0                stm32_sdio_init
                0x000000000800920c                stm32_sdio_config
                0x0000000008009270                stm32_sdio_start
                0x0000000008009280                stm32_sdio_stop
                0x000000000800928c                stm32_sdio_send_cmd
                0x00000000080092a4                stm32_sdio_send_cmd_isready
                0x00000000080092e4                stm32_sdio_get_resp
                0x0000000008009314                stm32_sdio_data_tx
                0x0000000008009380                stm32_sdio_data_tx_isready
                0x000000000800938c                stm32_sdio_data_rx
                0x0000000008009404                stm32_sdio_data_rx_isready
 .text          0x0000000008009458      0x12c ./usart_stream.o
                0x0000000008009474                usart_stream_init
                0x00000000080094bc                usart_stream_fini
                0x00000000080094f0                usart_stream_config
                0x000000000800951c                usart_stream_rx
                0x0000000008009522                usart_stream_tx
                0x0000000008009528                usart_stream_poll
 .text          0x0000000008009584       0x3c ./stream.o
                0x0000000008009584                stream_init
                0x0000000008009592                stream_fini
                0x0000000008009596                stream_rx
                0x000000000800959e                stream_tx
                0x00000000080095b8                stream_get_data_size
                0x00000000080095bc                stream_get_free_size
 .text          0x00000000080095c0      0xe6c ./vsf_usbd.o
                0x0000000008009840                vsfusbd_on_UNDERFLOW
                0x0000000008009844                vsfusbd_on_WAKEUP
                0x0000000008009850                vsfusbd_on_SUSPEND
                0x0000000008009864                vsfusbd_on_SOF
                0x0000000008009870                vsfusbd_on_ERROR
                0x0000000008009a20                vsfusbd_on_OVERFLOW
                0x0000000008009a78                vsfusbd_device_get_descriptor
                0x0000000008009b4c                vsfusbd_on_RESET
                0x0000000008009c44                vsfusbd_set_IN_handler
                0x0000000008009c58                vsfusbd_set_OUT_handler
                0x0000000008009c6a                vsfusbd_device_poll
                0x0000000008009d84                vsfusbd_ep_receive_nb
                0x0000000008009dcc                vsfusbd_ep_receive_nb_isready
                0x0000000008009dfe                vsfusbd_ep_receive
                0x0000000008009e2e                vsfusbd_ep_send_nb
                0x0000000008009f3c                vsfusbd_ep_send_nb_isready
                0x0000000008009f52                vsfusbd_ep_send
                0x0000000008009f82                vsfusbd_auto_init
                0x000000000800a128                vsfusbd_get_class_request_filter
                0x000000000800a144                vsfusbd_on_SETUP
                0x000000000800a30c                vsfusbd_on_RESUME
                0x000000000800a320                vsfusbd_on_ATTACH
                0x000000000800a32c                vsfusbd_on_DETACH
                0x000000000800a338                vsfusbd_device_init
                0x000000000800a404                vsfusbd_device_fini
 .text          0x000000000800a42c      0x26c ./vsfusbd_CDC.o
 .text          0x000000000800a698      0x1c8 ./vsfusbd_CDCACM.o
 .text          0x000000000800a860      0x1e8 ./buffer.o
                0x000000000800a860                vsf_fifo_init
                0x000000000800a86a                vsf_fifo_get_data_length
                0x000000000800a87c                vsf_fifo_get_avail_length
                0x000000000800a890                vsf_fifo_push8
                0x000000000800a8b4                vsf_fifo_pop8
                0x000000000800a8d2                vsf_fifo_push
                0x000000000800a930                vsf_fifo_peek_consequent
                0x000000000800a968                vsf_fifo_peek
                0x000000000800a9a4                vsf_fifo_pop
                0x000000000800a9ca                vsf_multibuf_init
                0x000000000800a9d4                vsf_multibuf_get_empty
                0x000000000800a9e8                vsf_multibuf_push
                0x000000000800aa0a                vsf_multibuf_get_payload
                0x000000000800aa1c                vsf_multibuf_pop
                0x000000000800aa3c                vsf_bufmgr_init
                0x000000000800aa42                vsf_bufmgr_malloc
                0x000000000800aa46                vsf_bufmgr_free
 .text          0x000000000800aa48      0x53c ./USB_TO_XXX.o
                0x000000000800aa48                USB_TO_XXX_Init
                0x000000000800aa60                USB_TO_XXX_ProcessCmd
 .text          0x000000000800af84       0xd4 ./USB_TO_CLKO.o
                0x000000000800af84                USB_TO_CLKO_ProcessCmd
 .text          0x000000000800b058       0xf0 ./USB_TO_SPI.o
                0x000000000800b058                USB_TO_SPI_ProcessCmd
 .text          0x000000000800b148      0x128 ./USB_TO_IIC.o
                0x000000000800b148                USB_TO_IIC_ProcessCmd
 .text          0x000000000800b270      0x12c ./USB_TO_GPIO.o
                0x000000000800b270                USB_TO_GPIO_ProcessCmd
 .text          0x000000000800b39c       0xf4 ./USB_TO_PWM.o
                0x000000000800b39c                USB_TO_PWM_ProcessCmd
 .text          0x000000000800b490      0x164 ./USB_TO_ADC.o
                0x000000000800b490                USB_TO_ADC_ProcessCmd
 .text          0x000000000800b5f4       0xd8 ./USB_TO_POWER.o
                0x000000000800b5f4                USB_TO_POWER_ProcessCmd
 .text          0x000000000800b6cc      0x104 ./USB_TO_C2.o
                0x000000000800b6cc                USB_TO_C2_ProcessCmd
 .text          0x000000000800b7d0      0x140 ./USB_TO_ISSP.o
                0x000000000800b7d0                USB_TO_ISSP_ProcessCmd
 .text          0x000000000800b910      0x11c ./USB_TO_LPCICP.o
                0x000000000800b910                USB_TO_LPCICP_ProcessCmd
 .text          0x000000000800ba2c      0x1fc ./USB_TO_MSP430_JTAG.o
                0x000000000800ba2c                USB_TO_MSP430_JTAG_ProcessCmd
 .text          0x000000000800bc28      0x190 ./USB_TO_JTAG_HL.o
                0x000000000800bc28                USB_TO_JTAG_HL_ProcessCmd
 .text          0x000000000800bdb8      0x184 ./USB_TO_SWD.o
                0x000000000800bdb8                USB_TO_SWD_ProcessCmd
 .text          0x000000000800bf3c      0x158 ./USB_TO_JTAG_LL.o
                0x000000000800bf3c                USB_TO_JTAG_LL_ProcessCmd
 .text          0x000000000800c094      0x148 ./USB_TO_SWIM.o
                0x000000000800c094                USB_TO_SWIM_ProcessCmd
 .text          0x000000000800c1dc      0x108 ./USB_TO_JTAG_RAW.o
                0x000000000800c1dc                USB_TO_JTAG_RAW_ProcessCmd
 .text          0x000000000800c2e4      0x168 ./USB_TO_BDM.o
                0x000000000800c2e4                USB_TO_BDM_ProcessCmd
 .text          0x000000000800c44c      0x104 ./USB_TO_DUSI.o
                0x000000000800c44c                USB_TO_DUSI_ProcessCmd
 .text          0x000000000800c550      0x1f4 ./USB_TO_MICROWIRE.o
                0x000000000800c550                USB_TO_MICROWIRE_ProcessCmd
 .text          0x000000000800c744       0xb0 ./CommandProcessor.o
                0x000000000800c744                ProcessCommand
 .text          0x000000000800c7f4       0x40 /usr/lib/gcc/arm-none-eabi/7.3.1/../../../arm-none-eabi/lib/libc.a(lib_a-malloc.o)
                0x000000000800c7f4                malloc
                0x000000000800c814                free
 .text          0x000000000800c834      0x7cc /usr/lib/gcc/arm-none-eabi/7.3.1/../../../arm-none-eabi/lib/libc.a(lib_a-mallocr.o)
                0x000000000800c834                _malloc_r
 .text          0x000000000800d000        0x8 /usr/lib/gcc/arm-none-eabi/7.3.1/../../../arm-none-eabi/lib/libc.a(lib_a-mlock.o)
                0x000000000800d000                __malloc_lock
                0x000000000800d004                __malloc_unlock
 .text          0x000000000800d008       0x3c /usr/lib/gcc/arm-none-eabi/7.3.1/../../../arm-none-eabi/lib/libc.a(lib_a-sbrkr.o)
                0x000000000800d008                _sbrk_r
 .text          0x000000000800d044      0x3dc /usr/lib/gcc/arm-none-eabi/7.3.1/../../../arm-none-eabi/lib/libc.a(lib_a-freer.o)
                0x000000000800d044                _malloc_trim_r
                0x000000000800d144                _free_r
 *(.text.*)
 .text.Reset_Handler
                0x000000000800d420       0x40 ./startup_stm32f10x_md.o
                0x000000000800d420                Reset_Handler
 .text.Default_Handler
                0x000000000800d460        0x2 ./startup_stm32f10x_md.o
                0x000000000800d460                DebugMon_Handler
                0x000000000800d460                TIM1_CC_IRQHandler
                0x000000000800d460                HardFault_Handler
                0x000000000800d460                SysTick_Handler
                0x000000000800d460                PVD_IRQHandler
                0x000000000800d460                PendSV_Handler
                0x000000000800d460                NMI_Handler
                0x000000000800d460                I2C2_EV_IRQHandler
                0x000000000800d460                UsageFault_Handler
                0x000000000800d460                ADC1_2_IRQHandler
                0x000000000800d460                SPI1_IRQHandler
                0x000000000800d460                TAMPER_IRQHandler
                0x000000000800d460                DMA1_Channel4_IRQHandler
                0x000000000800d460                USART3_IRQHandler
                0x000000000800d460                RTC_IRQHandler
                0x000000000800d460                DMA1_Channel7_IRQHandler
                0x000000000800d460                CAN1_RX1_IRQHandler
                0x000000000800d460                TIM4_IRQHandler
                0x000000000800d460                I2C1_EV_IRQHandler
                0x000000000800d460                DMA1_Channel6_IRQHandler
                0x000000000800d460                TIM3_IRQHandler
                0x000000000800d460                RCC_IRQHandler
                0x000000000800d460                TIM1_TRG_COM_IRQHandler
                0x000000000800d460                DMA1_Channel1_IRQHandler
                0x000000000800d460                Default_Handler
                0x000000000800d460                SPI2_IRQHandler
                0x000000000800d460                MemManage_Handler
                0x000000000800d460                SVC_Handler
                0x000000000800d460                DMA1_Channel5_IRQHandler
                0x000000000800d460                DMA1_Channel3_IRQHandler
                0x000000000800d460                TIM1_UP_IRQHandler
                0x000000000800d460                WWDG_IRQHandler
                0x000000000800d460                TIM2_IRQHandler
                0x000000000800d460                TIM1_BRK_IRQHandler
                0x000000000800d460                RTCAlarm_IRQHandler
                0x000000000800d460                USART2_IRQHandler
                0x000000000800d460                I2C2_ER_IRQHandler
                0x000000000800d460                DMA1_Channel2_IRQHandler
                0x000000000800d460                CAN1_SCE_IRQHandler
                0x000000000800d460                FLASH_IRQHandler
                0x000000000800d460                BusFault_Handler
                0x000000000800d460                I2C1_ER_IRQHandler
 *fill*         0x000000000800d462        0x2 
 .text.startup  0x000000000800d464       0x30 ./main.o
                0x000000000800d464                main
 *(.rodata)
 .rodata        0x000000000800d494      0x158 ./usb_protocol_Versaloon.o
 .rodata        0x000000000800d5ec       0x1c ./vsfusbd_Versaloon.o
                0x000000000800d5ec                vsfusbd_Versaloon_class
 .rodata        0x000000000800d608      0x268 ./app_interfaces.o
                0x000000000800d608                app_interfaces
 .rodata        0x000000000800d870      0x31c ./interfaces.o
                0x000000000800d870                core_interfaces
 .rodata        0x000000000800db8c        0x1 ./STM32_USBD.o
                0x000000000800db8c                stm32_usbd_ep_num
 *fill*         0x000000000800db8d        0x3 
 .rodata        0x000000000800db90        0x8 ./STM32_SPI.o
 .rodata        0x000000000800db98       0x44 ./STM32_TIM.o
 .rodata        0x000000000800dbdc        0xc ./STM32_ADC.o
 .rodata        0x000000000800dbe8        0xc ./STM32_USART.o
 .rodata        0x000000000800dbf4       0xcc ./vsf_usbd.o
 .rodata        0x000000000800dcc0       0x5c ./vsfusbd_CDC.o
                0x000000000800dcc0                vsfusbd_CDCData_class
                0x000000000800dcdc                vsfusbd_CDCControl_class
 .rodata        0x000000000800dd1c       0x74 ./vsfusbd_CDCACM.o
                0x000000000800dd1c                vsfusbd_CDCACMData_class
                0x000000000800dd38                vsfusbd_CDCACMControl_class
 *(.rodata*)
 .rodata.str1.1
                0x000000000800dd90       0x11 ./usb_protocol_Versaloon.o
 .rodata.str1.1
                0x000000000800dda1       0x89 ./app_interfaces.o
 .rodata.str1.1
                0x000000000800de2a       0x31 ./CommandProcessor.o
 *(.glue_7)
 .glue_7        0x000000000800de5b        0x0 linker stubs
 *(.glue_7t)
 .glue_7t       0x000000000800de5b        0x0 linker stubs
 *(.init)
 *fill*         0x000000000800de5b        0x1 
 .init          0x000000000800de5c        0xc /usr/lib/gcc/arm-none-eabi/7.3.1/crti.o
                0x000000000800de5c                _init
 .init          0x000000000800de68        0xc /usr/lib/gcc/arm-none-eabi/7.3.1/crtn.o
 *(.fini)
 .fini          0x000000000800de74        0xc /usr/lib/gcc/arm-none-eabi/7.3.1/crti.o
                0x000000000800de74                _fini
 .fini          0x000000000800de80        0xc /usr/lib/gcc/arm-none-eabi/7.3.1/crtn.o
                0x000000000800de8c                . = ALIGN (0x4)
                0x000000000800de8c                _etext = .
                0x000000000800de8c                _sidata = _etext

.vfp11_veneer   0x000000000800de8c        0x0
 .vfp11_veneer  0x000000000800de8c        0x0 linker stubs

.v4_bx          0x000000000800de8c        0x0
 .v4_bx         0x000000000800de8c        0x0 linker stubs

.iplt           0x000000000800de8c        0x0
 .iplt          0x000000000800de8c        0x0 ./startup_stm32f10x_md.o

.rel.dyn        0x000000000800de8c        0x0
 .rel.iplt      0x000000000800de8c        0x0 ./startup_stm32f10x_md.o

.data           0x0000000020000000      0xc80 load address 0x000000000800de8c
                0x0000000020000000                . = ALIGN (0x4)
                0x0000000020000000                _sdata = .
 *(.data)
 .data          0x0000000020000000       0x14 ./stm32f10x_rcc.o
 .data          0x0000000020000014      0x3af ./usb_protocol_Versaloon.o
                0x0000000020000014                Versaloon_CDCACM_param
                0x000000002000008c                usb_device
                0x00000000200003c0                Versaloon_param
 *fill*         0x00000000200003c3        0x1 
 .data          0x00000000200003c4        0x4 ./app_interfaces.o
                0x00000000200003c4                interfaces
 .data          0x00000000200003c8       0x34 ./USART.o
                0x00000000200003c8                usart_stream_p0
 .data          0x00000000200003fc       0x10 ./JTAG_TAP.o
                0x00000000200003fc                JTAG_TAP_1s
 .data          0x000000002000040c        0x1 ./SWD.o
                0x000000002000040c                SWD_Trn
 *fill*         0x000000002000040d        0x3 
 .data          0x0000000020000410       0x28 ./core.o
 .data          0x0000000020000438        0x2 ./STM32_USBD.o
 *fill*         0x000000002000043a        0x6 
 .data          0x0000000020000440      0x430 /usr/lib/gcc/arm-none-eabi/7.3.1/../../../arm-none-eabi/lib/libc.a(lib_a-impure.o)
                0x0000000020000440                _impure_ptr
 .data          0x0000000020000870      0x410 /usr/lib/gcc/arm-none-eabi/7.3.1/../../../arm-none-eabi/lib/libc.a(lib_a-mallocr.o)
                0x0000000020000870                __malloc_av_
                0x0000000020000c78                __malloc_sbrk_base
                0x0000000020000c7c                __malloc_trim_threshold
 *(.data.*)
                0x0000000020000c80                . = ALIGN (0x4)
                0x0000000020000c80                _edata = .

.igot.plt       0x0000000020000c80        0x0 load address 0x000000000800eb0c
 .igot.plt      0x0000000020000c80        0x0 ./startup_stm32f10x_md.o

.bss            0x0000000020000c80     0x3384 load address 0x000000000800eb0c
                0x0000000020000c80                . = ALIGN (0x4)
                0x0000000020000c80                _sbss = .
 *(.bss)
 .bss           0x0000000020000c80     0x3010 ./vsfusbd_Versaloon.o
                0x0000000020000c80                cmd_len
                0x0000000020000c84                usb_ovf
                0x0000000020000c88                count_out
                0x0000000020000c8c                rep_len
                0x0000000020000c90                asyn_rx_buf
                0x0000000020001c90                buffer_out
 .bss           0x0000000020003c90        0x4 ./syscall.o
 .bss           0x0000000020003c94        0x9 ./SPI.o
 *fill*         0x0000000020003c9d        0x3 
 .bss           0x0000000020003ca0       0xac ./JTAG_TAP.o
                0x0000000020003ca0                JTAG_TAP_TMS_scraplen
                0x0000000020003ca1                JTAG_TAP_TMS_scrap
                0x0000000020003ca4                JTAG_TAP_Operate_Asyn
                0x0000000020003ca8                JTAG_TAP_Operate_RAW
 .bss           0x0000000020003d4c        0xe ./SWD.o
                0x0000000020003d4c                SWD_Delay
                0x0000000020003d50                SWD_SeqOut
                0x0000000020003d54                SWD_SeqIn
                0x0000000020003d58                SWD_Retry
 .bss           0x0000000020003d5a       0x3a ./SWIM.o
 .bss           0x0000000020003d94        0x4 ./MicroWire.o
 .bss           0x0000000020003d98        0x7 ./PowerExt.o
                0x0000000020003d9e                PWREXT_PowerState
 *fill*         0x0000000020003d9f        0x1 
 .bss           0x0000000020003da0        0xa ./IIC.o
                0x0000000020003da8                IIC_Delay
 .bss           0x0000000020003daa      0x11a ./BDM.o
                0x0000000020003daa                BDM_Inited
 .bss           0x0000000020003ec4        0x4 ./PWM.o
 .bss           0x0000000020003ec8       0x6c ./STM32_USBD.o
                0x0000000020003ec8                stm32_usbd_epaddr
                0x0000000020003ed0                stm32_usbd_IN_epsize
                0x0000000020003ee0                stm32_usbd_OUT_epsize
                0x0000000020003ef0                stm32_usbd_IN_dbuffer
                0x0000000020003ef8                stm32_usbd_OUT_dbuffer
                0x0000000020003f00                stm32_usbd_callback
 .bss           0x0000000020003f34       0x40 ./STM32_EINT.o
 .bss           0x0000000020003f74       0x24 ./STM32_USART.o
 .bss           0x0000000020003f98        0x4 ./STM32_SDIO.o
 .bss           0x0000000020003f9c       0x30 ./USB_TO_XXX.o
                0x0000000020003fa4                buffer_reply
                0x0000000020003fa8                USB_TO_POLL_Index
                0x0000000020003fac                USB_TO_POLL_Context
 .bss           0x0000000020003fcc       0x34 /usr/lib/gcc/arm-none-eabi/7.3.1/../../../arm-none-eabi/lib/libc.a(lib_a-mallocr.o)
                0x0000000020003fcc                __malloc_top_pad
                0x0000000020003fd0                __malloc_current_mallinfo
                0x0000000020003ff8                __malloc_max_sbrked_mem
                0x0000000020003ffc                __malloc_max_total_mem
 *(COMMON)
 COMMON         0x0000000020004000        0x4 /usr/lib/gcc/arm-none-eabi/7.3.1/../../../arm-none-eabi/lib/libc.a(lib_a-reent.o)
                0x0000000020004000                errno
                0x0000000020004004                . = ALIGN (0x4)
                0x0000000020004004                _ebss = .
                [!provide]                        PROVIDE (end = _ebss)
                [!provide]                        PROVIDE (_end = _ebss)

._user_heap_stack
                0x0000000020004004      0x400 load address 0x0000000008011e90
                0x0000000020004004                . = ALIGN (0x4)
                0x0000000020004004                . = (. + _Heap_Size)
                0x0000000020004404                . = (. + _Stack_Size)
 *fill*         0x0000000020004004      0x400 
                0x0000000020004404                . = ALIGN (0x4)

.b1text
 *(.b1text)
 *(.b1rodata)
 *(.b1rodata*)

.eb0text
 *(.eb0text)
 *(.eb0rodata)
 *(.eb0rodata*)

.eb1text
 *(.eb1text)
 *(.eb1rodata)
 *(.eb1rodata*)

.eb2text
 *(.eb2text)
 *(.eb2rodata)
 *(.eb2rodata*)

.eb3text
 *(.eb3text)
 *(.eb3rodata)
 *(.eb3rodata*)
                0x0000000020004404                __exidx_start = .
                0x0000000020004404                __exidx_end = .

/DISCARD/
 libc.a(*)
 libm.a(*)
 libgcc.a(*)

.stab
 *(.stab)

.stabstr
 *(.stabstr)

.stab.excl
 *(.stab.excl)

.stab.exclstr
 *(.stab.exclstr)

.stab.index
 *(.stab.index)

.stab.indexstr
 *(.stab.indexstr)

.comment        0x0000000000000000       0xae
 *(.comment)
 .comment       0x0000000000000000       0x57 ./core_cm3.o
                                         0x58 (size before relaxing)
 .comment       0x0000000000000057       0x58 ./misc.o
 .comment       0x0000000000000057       0x58 ./stm32f10x_dma.o
 .comment       0x0000000000000057       0x58 ./stm32f10x_gpio.o
 .comment       0x0000000000000057       0x58 ./stm32f10x_rcc.o
 .comment       0x0000000000000057       0x58 ./stm32f10x_spi.o
 .comment       0x0000000000000057       0x58 ./stm32f10x_tim.o
 .comment       0x0000000000000057       0x58 ./usb_mem.o
 .comment       0x0000000000000057       0x58 ./usb_regs.o
 .comment       0x0000000000000057       0x58 ./main.o
 .comment       0x0000000000000057       0x58 ./usb_protocol_Versaloon.o
 .comment       0x0000000000000057       0x58 ./vsfusbd_Versaloon.o
 .comment       0x0000000000000057       0x58 ./compiler_string.o
 .comment       0x0000000000000057       0x58 ./syscall.o
 .comment       0x0000000000000057       0x58 ./app_interfaces.o
 .comment       0x0000000000000057       0x58 ./GPIO.o
 .comment       0x0000000000000057       0x58 ./CLKO.o
 .comment       0x0000000000000057       0x58 ./USART.o
 .comment       0x0000000000000057       0x58 ./SPI.o
 .comment       0x0000000000000057       0x58 ./JTAG_TAP.o
 .comment       0x0000000000000057       0x58 ./SWD.o
 .comment       0x0000000000000057       0x58 ./SWIM.o
 .comment       0x0000000000000057       0x58 ./DUSI.o
 .comment       0x0000000000000057       0x58 ./MicroWire.o
 .comment       0x0000000000000057       0x58 ./PowerExt.o
 .comment       0x0000000000000057       0x58 ./IIC.o
 .comment       0x0000000000000057       0x58 ./C2.o
 .comment       0x0000000000000057       0x58 ./ISSP.o
 .comment       0x0000000000000057       0x58 ./LPC_ICP.o
 .comment       0x0000000000000057       0x58 ./MSP430_JTAG.o
 .comment       0x0000000000000057       0x58 ./BDM.o
 .comment       0x0000000000000057       0x58 ./PWM.o
 .comment       0x0000000000000057       0x58 ./ADC.o
 .comment       0x0000000000000057       0x58 ./interfaces.o
 .comment       0x0000000000000057       0x58 ./core.o
 .comment       0x0000000000000057       0x58 ./STM32_CLKO.o
 .comment       0x0000000000000057       0x58 ./STM32_GPIO.o
 .comment       0x0000000000000057       0x58 ./STM32_USBD.o
 .comment       0x0000000000000057       0x58 ./STM32_SPI.o
 .comment       0x0000000000000057       0x58 ./STM32_TIM.o
 .comment       0x0000000000000057       0x58 ./STM32_EINT.o
 .comment       0x0000000000000057       0x58 ./STM32_ADC.o
 .comment       0x0000000000000057       0x58 ./STM32_USART.o
 .comment       0x0000000000000057       0x58 ./STM32_EBI.o
 .comment       0x0000000000000057       0x58 ./STM32_FLASH.o
 .comment       0x0000000000000057       0x58 ./STM32_SDIO.o
 .comment       0x0000000000000057       0x58 ./usart_stream.o
 .comment       0x0000000000000057       0x58 ./stream.o
 .comment       0x0000000000000057       0x58 ./vsf_usbd.o
 .comment       0x0000000000000057       0x58 ./vsfusbd_CDC.o
 .comment       0x0000000000000057       0x58 ./vsfusbd_CDCACM.o
 .comment       0x0000000000000057       0x58 ./buffer.o
 .comment       0x0000000000000057       0x58 ./USB_TO_XXX.o
 .comment       0x0000000000000057       0x58 ./USB_TO_CLKO.o
 .comment       0x0000000000000057       0x58 ./USB_TO_SPI.o
 .comment       0x0000000000000057       0x58 ./USB_TO_IIC.o
 .comment       0x0000000000000057       0x58 ./USB_TO_GPIO.o
 .comment       0x0000000000000057       0x58 ./USB_TO_PWM.o
 .comment       0x0000000000000057       0x58 ./USB_TO_ADC.o
 .comment       0x0000000000000057       0x58 ./USB_TO_POWER.o
 .comment       0x0000000000000057       0x58 ./USB_TO_C2.o
 .comment       0x0000000000000057       0x58 ./USB_TO_ISSP.o
 .comment       0x0000000000000057       0x58 ./USB_TO_LPCICP.o
 .comment       0x0000000000000057       0x58 ./USB_TO_MSP430_JTAG.o
 .comment       0x0000000000000057       0x58 ./USB_TO_JTAG_HL.o
 .comment       0x0000000000000057       0x58 ./USB_TO_SWD.o
 .comment       0x0000000000000057       0x58 ./USB_TO_JTAG_LL.o
 .comment       0x0000000000000057       0x58 ./USB_TO_SWIM.o
 .comment       0x0000000000000057       0x58 ./USB_TO_JTAG_RAW.o
 .comment       0x0000000000000057       0x58 ./USB_TO_BDM.o
 .comment       0x0000000000000057       0x58 ./USB_TO_DUSI.o
 .comment       0x0000000000000057       0x58 ./USB_TO_MICROWIRE.o
 .comment       0x0000000000000057       0x58 ./CommandProcessor.o
 .comment       0x0000000000000057       0x57 /usr/lib/gcc/arm-none-eabi/7.3.1/../../../arm-none-eabi/lib/libc.a(lib_a-impure.o)
                                         0x58 (size before relaxing)
 .comment       0x00000000000000ae       0x58 /usr/lib/gcc/arm-none-eabi/7.3.1/../../../arm-none-eabi/lib/libc.a(lib_a-malloc.o)
 .comment       0x00000000000000ae       0x58 /usr/lib/gcc/arm-none-eabi/7.3.1/../../../arm-none-eabi/lib/libc.a(lib_a-mallocr.o)
 .comment       0x00000000000000ae       0x58 /usr/lib/gcc/arm-none-eabi/7.3.1/../../../arm-none-eabi/lib/libc.a(lib_a-mlock.o)
 .comment       0x00000000000000ae       0x58 /usr/lib/gcc/arm-none-eabi/7.3.1/../../../arm-none-eabi/lib/libc.a(lib_a-sbrkr.o)
 .comment       0x00000000000000ae       0x58 /usr/lib/gcc/arm-none-eabi/7.3.1/../../../arm-none-eabi/lib/libc.a(lib_a-freer.o)
 .comment       0x00000000000000ae       0x58 /usr/lib/gcc/arm-none-eabi/7.3.1/../../../arm-none-eabi/lib/libc.a(lib_a-reent.o)

.ARM.attributes
                0x0000000000000000       0x33
 .ARM.attributes
                0x0000000000000000       0x14 /usr/lib/gcc/arm-none-eabi/7.3.1/crti.o
 .ARM.attributes
                0x0000000000000014       0x21 ./startup_stm32f10x_md.o
 .ARM.attributes
                0x0000000000000035       0x33 ./core_cm3.o
 .ARM.attributes
                0x0000000000000068       0x33 ./misc.o
 .ARM.attributes
                0x000000000000009b       0x33 ./stm32f10x_dma.o
 .ARM.attributes
                0x00000000000000ce       0x33 ./stm32f10x_gpio.o
 .ARM.attributes
                0x0000000000000101       0x33 ./stm32f10x_rcc.o
 .ARM.attributes
                0x0000000000000134       0x33 ./stm32f10x_spi.o
 .ARM.attributes
                0x0000000000000167       0x33 ./stm32f10x_tim.o
 .ARM.attributes
                0x000000000000019a       0x33 ./usb_mem.o
 .ARM.attributes
                0x00000000000001cd       0x33 ./usb_regs.o
 .ARM.attributes
                0x0000000000000200       0x33 ./main.o
 .ARM.attributes
                0x0000000000000233       0x33 ./usb_protocol_Versaloon.o
 .ARM.attributes
                0x0000000000000266       0x33 ./vsfusbd_Versaloon.o
 .ARM.attributes
                0x0000000000000299       0x33 ./compiler_string.o
 .ARM.attributes
                0x00000000000002cc       0x33 ./syscall.o
 .ARM.attributes
                0x00000000000002ff       0x33 ./app_interfaces.o
 .ARM.attributes
                0x0000000000000332       0x33 ./GPIO.o
 .ARM.attributes
                0x0000000000000365       0x33 ./CLKO.o
 .ARM.attributes
                0x0000000000000398       0x33 ./USART.o
 .ARM.attributes
                0x00000000000003cb       0x33 ./SPI.o
 .ARM.attributes
                0x00000000000003fe       0x33 ./JTAG_TAP.o
 .ARM.attributes
                0x0000000000000431       0x33 ./SWD.o
 .ARM.attributes
                0x0000000000000464       0x33 ./SWIM.o
 .ARM.attributes
                0x0000000000000497       0x33 ./DUSI.o
 .ARM.attributes
                0x00000000000004ca       0x33 ./MicroWire.o
 .ARM.attributes
                0x00000000000004fd       0x33 ./PowerExt.o
 .ARM.attributes
                0x0000000000000530       0x33 ./IIC.o
 .ARM.attributes
                0x0000000000000563       0x33 ./C2.o
 .ARM.attributes
                0x0000000000000596       0x33 ./ISSP.o
 .ARM.attributes
                0x00000000000005c9       0x33 ./LPC_ICP.o
 .ARM.attributes
                0x00000000000005fc       0x33 ./MSP430_JTAG.o
 .ARM.attributes
                0x000000000000062f       0x33 ./BDM.o
 .ARM.attributes
                0x0000000000000662       0x33 ./PWM.o
 .ARM.attributes
                0x0000000000000695       0x33 ./ADC.o
 .ARM.attributes
                0x00000000000006c8       0x33 ./interfaces.o
 .ARM.attributes
                0x00000000000006fb       0x33 ./core.o
 .ARM.attributes
                0x000000000000072e       0x33 ./STM32_CLKO.o
 .ARM.attributes
                0x0000000000000761       0x33 ./STM32_GPIO.o
 .ARM.attributes
                0x0000000000000794       0x33 ./STM32_USBD.o
 .ARM.attributes
                0x00000000000007c7       0x33 ./STM32_SPI.o
 .ARM.attributes
                0x00000000000007fa       0x33 ./STM32_TIM.o
 .ARM.attributes
                0x000000000000082d       0x33 ./STM32_EINT.o
 .ARM.attributes
                0x0000000000000860       0x33 ./STM32_ADC.o
 .ARM.attributes
                0x0000000000000893       0x33 ./STM32_USART.o
 .ARM.attributes
                0x00000000000008c6       0x33 ./STM32_EBI.o
 .ARM.attributes
                0x00000000000008f9       0x33 ./STM32_FLASH.o
 .ARM.attributes
                0x000000000000092c       0x33 ./STM32_SDIO.o
 .ARM.attributes
                0x000000000000095f       0x33 ./usart_stream.o
 .ARM.attributes
                0x0000000000000992       0x33 ./stream.o
 .ARM.attributes
                0x00000000000009c5       0x33 ./vsf_usbd.o
 .ARM.attributes
                0x00000000000009f8       0x33 ./vsfusbd_CDC.o
 .ARM.attributes
                0x0000000000000a2b       0x33 ./vsfusbd_CDCACM.o
 .ARM.attributes
                0x0000000000000a5e       0x33 ./buffer.o
 .ARM.attributes
                0x0000000000000a91       0x33 ./USB_TO_XXX.o
 .ARM.attributes
                0x0000000000000ac4       0x33 ./USB_TO_CLKO.o
 .ARM.attributes
                0x0000000000000af7       0x33 ./USB_TO_SPI.o
 .ARM.attributes
                0x0000000000000b2a       0x33 ./USB_TO_IIC.o
 .ARM.attributes
                0x0000000000000b5d       0x33 ./USB_TO_GPIO.o
 .ARM.attributes
                0x0000000000000b90       0x33 ./USB_TO_PWM.o
 .ARM.attributes
                0x0000000000000bc3       0x33 ./USB_TO_ADC.o
 .ARM.attributes
                0x0000000000000bf6       0x33 ./USB_TO_POWER.o
 .ARM.attributes
                0x0000000000000c29       0x33 ./USB_TO_C2.o
 .ARM.attributes
                0x0000000000000c5c       0x33 ./USB_TO_ISSP.o
 .ARM.attributes
                0x0000000000000c8f       0x33 ./USB_TO_LPCICP.o
 .ARM.attributes
                0x0000000000000cc2       0x33 ./USB_TO_MSP430_JTAG.o
 .ARM.attributes
                0x0000000000000cf5       0x33 ./USB_TO_JTAG_HL.o
 .ARM.attributes
                0x0000000000000d28       0x33 ./USB_TO_SWD.o
 .ARM.attributes
                0x0000000000000d5b       0x33 ./USB_TO_JTAG_LL.o
 .ARM.attributes
                0x0000000000000d8e       0x33 ./USB_TO_SWIM.o
 .ARM.attributes
                0x0000000000000dc1       0x33 ./USB_TO_JTAG_RAW.o
 .ARM.attributes
                0x0000000000000df4       0x33 ./USB_TO_BDM.o
 .ARM.attributes
                0x0000000000000e27       0x33 ./USB_TO_DUSI.o
 .ARM.attributes
                0x0000000000000e5a       0x33 ./USB_TO_MICROWIRE.o
 .ARM.attributes
                0x0000000000000e8d       0x33 ./CommandProcessor.o
 .ARM.attributes
                0x0000000000000ec0       0x30 /usr/lib/gcc/arm-none-eabi/7.3.1/../../../arm-none-eabi/lib/libc.a(lib_a-impure.o)
 .ARM.attributes
                0x0000000000000ef0       0x30 /usr/lib/gcc/arm-none-eabi/7.3.1/../../../arm-none-eabi/lib/libc.a(lib_a-malloc.o)
 .ARM.attributes
                0x0000000000000f20       0x30 /usr/lib/gcc/arm-none-eabi/7.3.1/../../../arm-none-eabi/lib/libc.a(lib_a-mallocr.o)
 .ARM.attributes
                0x0000000000000f50       0x30 /usr/lib/gcc/arm-none-eabi/7.3.1/../../../arm-none-eabi/lib/libc.a(lib_a-mlock.o)
 .ARM.attributes
                0x0000000000000f80       0x30 /usr/lib/gcc/arm-none-eabi/7.3.1/../../../arm-none-eabi/lib/libc.a(lib_a-sbrkr.o)
 .ARM.attributes
                0x0000000000000fb0       0x30 /usr/lib/gcc/arm-none-eabi/7.3.1/../../../arm-none-eabi/lib/libc.a(lib_a-freer.o)
 .ARM.attributes
                0x0000000000000fe0       0x30 /usr/lib/gcc/arm-none-eabi/7.3.1/../../../arm-none-eabi/lib/libc.a(lib_a-reent.o)
 .ARM.attributes
                0x0000000000001010       0x18 /usr/lib/gcc/arm-none-eabi/7.3.1/crtn.o

.debug
 *(.debug)

.line
 *(.line)

.debug_srcinfo
 *(.debug_srcinfo)

.debug_sfnames
 *(.debug_sfnames)

.debug_aranges  0x0000000000000000      0xa20
 *(.debug_aranges)
 .debug_aranges
                0x0000000000000000       0x28 ./startup_stm32f10x_md.o
 .debug_aranges
                0x0000000000000028       0x20 ./core_cm3.o
 .debug_aranges
                0x0000000000000048       0x20 ./misc.o
 .debug_aranges
                0x0000000000000068       0x20 ./stm32f10x_dma.o
 .debug_aranges
                0x0000000000000088       0x20 ./stm32f10x_gpio.o
 .debug_aranges
                0x00000000000000a8       0x20 ./stm32f10x_rcc.o
 .debug_aranges
                0x00000000000000c8       0x20 ./stm32f10x_spi.o
 .debug_aranges
                0x00000000000000e8       0x20 ./stm32f10x_tim.o
 .debug_aranges
                0x0000000000000108       0x20 ./usb_mem.o
 .debug_aranges
                0x0000000000000128       0x20 ./usb_regs.o
 .debug_aranges
                0x0000000000000148       0x20 ./main.o
 .debug_aranges
                0x0000000000000168       0x20 ./usb_protocol_Versaloon.o
 .debug_aranges
                0x0000000000000188       0x20 ./vsfusbd_Versaloon.o
 .debug_aranges
                0x00000000000001a8       0x20 ./compiler_string.o
 .debug_aranges
                0x00000000000001c8       0x20 ./syscall.o
 .debug_aranges
                0x00000000000001e8       0x20 ./app_interfaces.o
 .debug_aranges
                0x0000000000000208       0x20 ./GPIO.o
 .debug_aranges
                0x0000000000000228       0x20 ./CLKO.o
 .debug_aranges
                0x0000000000000248       0x20 ./USART.o
 .debug_aranges
                0x0000000000000268       0x20 ./SPI.o
 .debug_aranges
                0x0000000000000288       0x20 ./JTAG_TAP.o
 .debug_aranges
                0x00000000000002a8       0x20 ./SWD.o
 .debug_aranges
                0x00000000000002c8       0x20 ./SWIM.o
 .debug_aranges
                0x00000000000002e8       0x20 ./DUSI.o
 .debug_aranges
                0x0000000000000308       0x20 ./MicroWire.o
 .debug_aranges
                0x0000000000000328       0x20 ./PowerExt.o
 .debug_aranges
                0x0000000000000348       0x20 ./IIC.o
 .debug_aranges
                0x0000000000000368       0x20 ./C2.o
 .debug_aranges
                0x0000000000000388       0x20 ./ISSP.o
 .debug_aranges
                0x00000000000003a8       0x20 ./LPC_ICP.o
 .debug_aranges
                0x00000000000003c8       0x20 ./MSP430_JTAG.o
 .debug_aranges
                0x00000000000003e8       0x20 ./BDM.o
 .debug_aranges
                0x0000000000000408       0x20 ./PWM.o
 .debug_aranges
                0x0000000000000428       0x20 ./ADC.o
 .debug_aranges
                0x0000000000000448       0x20 ./interfaces.o
 .debug_aranges
                0x0000000000000468       0x20 ./core.o
 .debug_aranges
                0x0000000000000488       0x20 ./STM32_CLKO.o
 .debug_aranges
                0x00000000000004a8       0x20 ./STM32_GPIO.o
 .debug_aranges
                0x00000000000004c8       0x20 ./STM32_USBD.o
 .debug_aranges
                0x00000000000004e8       0x20 ./STM32_SPI.o
 .debug_aranges
                0x0000000000000508       0x20 ./STM32_TIM.o
 .debug_aranges
                0x0000000000000528       0x20 ./STM32_EINT.o
 .debug_aranges
                0x0000000000000548       0x20 ./STM32_ADC.o
 .debug_aranges
                0x0000000000000568       0x20 ./STM32_USART.o
 .debug_aranges
                0x0000000000000588       0x20 ./STM32_EBI.o
 .debug_aranges
                0x00000000000005a8       0x20 ./STM32_FLASH.o
 .debug_aranges
                0x00000000000005c8       0x20 ./STM32_SDIO.o
 .debug_aranges
                0x00000000000005e8       0x20 ./usart_stream.o
 .debug_aranges
                0x0000000000000608       0x20 ./stream.o
 .debug_aranges
                0x0000000000000628       0x20 ./vsf_usbd.o
 .debug_aranges
                0x0000000000000648       0x20 ./vsfusbd_CDC.o
 .debug_aranges
                0x0000000000000668       0x20 ./vsfusbd_CDCACM.o
 .debug_aranges
                0x0000000000000688       0x20 ./buffer.o
 .debug_aranges
                0x00000000000006a8       0x20 ./USB_TO_XXX.o
 .debug_aranges
                0x00000000000006c8       0x20 ./USB_TO_CLKO.o
 .debug_aranges
                0x00000000000006e8       0x20 ./USB_TO_SPI.o
 .debug_aranges
                0x0000000000000708       0x20 ./USB_TO_IIC.o
 .debug_aranges
                0x0000000000000728       0x20 ./USB_TO_GPIO.o
 .debug_aranges
                0x0000000000000748       0x20 ./USB_TO_PWM.o
 .debug_aranges
                0x0000000000000768       0x20 ./USB_TO_ADC.o
 .debug_aranges
                0x0000000000000788       0x20 ./USB_TO_POWER.o
 .debug_aranges
                0x00000000000007a8       0x20 ./USB_TO_C2.o
 .debug_aranges
                0x00000000000007c8       0x20 ./USB_TO_ISSP.o
 .debug_aranges
                0x00000000000007e8       0x20 ./USB_TO_LPCICP.o
 .debug_aranges
                0x0000000000000808       0x20 ./USB_TO_MSP430_JTAG.o
 .debug_aranges
                0x0000000000000828       0x20 ./USB_TO_JTAG_HL.o
 .debug_aranges
                0x0000000000000848       0x20 ./USB_TO_SWD.o
 .debug_aranges
                0x0000000000000868       0x20 ./USB_TO_JTAG_LL.o
 .debug_aranges
                0x0000000000000888       0x20 ./USB_TO_SWIM.o
 .debug_aranges
                0x00000000000008a8       0x20 ./USB_TO_JTAG_RAW.o
 .debug_aranges
                0x00000000000008c8       0x20 ./USB_TO_BDM.o
 .debug_aranges
                0x00000000000008e8       0x20 ./USB_TO_DUSI.o
 .debug_aranges
                0x0000000000000908       0x20 ./USB_TO_MICROWIRE.o
 .debug_aranges
                0x0000000000000928       0x20 ./CommandProcessor.o
 .debug_aranges
                0x0000000000000948       0x18 /usr/lib/gcc/arm-none-eabi/7.3.1/../../../arm-none-eabi/lib/libc.a(lib_a-impure.o)
 .debug_aranges
                0x0000000000000960       0x20 /usr/lib/gcc/arm-none-eabi/7.3.1/../../../arm-none-eabi/lib/libc.a(lib_a-malloc.o)
 .debug_aranges
                0x0000000000000980       0x20 /usr/lib/gcc/arm-none-eabi/7.3.1/../../../arm-none-eabi/lib/libc.a(lib_a-mallocr.o)
 .debug_aranges
                0x00000000000009a0       0x20 /usr/lib/gcc/arm-none-eabi/7.3.1/../../../arm-none-eabi/lib/libc.a(lib_a-mlock.o)
 .debug_aranges
                0x00000000000009c0       0x20 /usr/lib/gcc/arm-none-eabi/7.3.1/../../../arm-none-eabi/lib/libc.a(lib_a-sbrkr.o)
 .debug_aranges
                0x00000000000009e0       0x20 /usr/lib/gcc/arm-none-eabi/7.3.1/../../../arm-none-eabi/lib/libc.a(lib_a-freer.o)
 .debug_aranges
                0x0000000000000a00       0x20 /usr/lib/gcc/arm-none-eabi/7.3.1/../../../arm-none-eabi/lib/libc.a(lib_a-reent.o)

.debug_pubnames
 *(.debug_pubnames)

.debug_info     0x0000000000000000    0xab114
 *(.debug_info .gnu.linkonce.wi.*)
 .debug_info    0x0000000000000000       0x22 ./startup_stm32f10x_md.o
 .debug_info    0x0000000000000022      0x540 ./core_cm3.o
 .debug_info    0x0000000000000562      0x4e7 ./misc.o
 .debug_info    0x0000000000000a49      0x413 ./stm32f10x_dma.o
 .debug_info    0x0000000000000e5c      0x7df ./stm32f10x_gpio.o
 .debug_info    0x000000000000163b      0x8ca ./stm32f10x_rcc.o
 .debug_info    0x0000000000001f05      0x992 ./stm32f10x_spi.o
 .debug_info    0x0000000000002897     0x2041 ./stm32f10x_tim.o
 .debug_info    0x00000000000048d8      0x1e1 ./usb_mem.o
 .debug_info    0x0000000000004ab9      0xc60 ./usb_regs.o
 .debug_info    0x0000000000005719     0x2b8f ./main.o
 .debug_info    0x00000000000082a8     0x38b0 ./usb_protocol_Versaloon.o
 .debug_info    0x000000000000bb58     0x2e1b ./vsfusbd_Versaloon.o
 .debug_info    0x000000000000e973      0xc6f ./compiler_string.o
 .debug_info    0x000000000000f5e2      0xc7e ./syscall.o
 .debug_info    0x0000000000010260     0x270b ./app_interfaces.o
 .debug_info    0x000000000001296b     0x27e2 ./GPIO.o
 .debug_info    0x000000000001514d     0x255d ./CLKO.o
 .debug_info    0x00000000000176aa     0x287f ./USART.o
 .debug_info    0x0000000000019f29     0x2a47 ./SPI.o
 .debug_info    0x000000000001c970     0x3c0d ./JTAG_TAP.o
 .debug_info    0x000000000002057d     0x2ca0 ./SWD.o
 .debug_info    0x000000000002321d     0x38e4 ./SWIM.o
 .debug_info    0x0000000000026b01     0x2745 ./DUSI.o
 .debug_info    0x0000000000029246     0x2ab3 ./MicroWire.o
 .debug_info    0x000000000002bcf9     0x26cd ./PowerExt.o
 .debug_info    0x000000000002e3c6     0x2d8a ./IIC.o
 .debug_info    0x0000000000031150     0x2c74 ./C2.o
 .debug_info    0x0000000000033dc4     0x2c9a ./ISSP.o
 .debug_info    0x0000000000036a5e     0x2a35 ./LPC_ICP.o
 .debug_info    0x0000000000039493     0x2e12 ./MSP430_JTAG.o
 .debug_info    0x000000000003c2a5     0x3435 ./BDM.o
 .debug_info    0x000000000003f6da     0x3124 ./PWM.o
 .debug_info    0x00000000000427fe     0x2663 ./ADC.o
 .debug_info    0x0000000000044e61     0x2486 ./interfaces.o
 .debug_info    0x00000000000472e7      0xfc0 ./core.o
 .debug_info    0x00000000000482a7     0x27e2 ./STM32_CLKO.o
 .debug_info    0x000000000004aa89     0x283f ./STM32_GPIO.o
 .debug_info    0x000000000004d2c8     0x3a5a ./STM32_USBD.o
 .debug_info    0x0000000000050d22     0x2eca ./STM32_SPI.o
 .debug_info    0x0000000000053bec     0x2a31 ./STM32_TIM.o
 .debug_info    0x000000000005661d     0x2899 ./STM32_EINT.o
 .debug_info    0x0000000000058eb6     0x2b95 ./STM32_ADC.o
 .debug_info    0x000000000005ba4b     0x2c17 ./STM32_USART.o
 .debug_info    0x000000000005e662     0x30c9 ./STM32_EBI.o
 .debug_info    0x000000000006172b     0x2c29 ./STM32_FLASH.o
 .debug_info    0x0000000000064354     0x2c3f ./STM32_SDIO.o
 .debug_info    0x0000000000066f93     0x281e ./usart_stream.o
 .debug_info    0x00000000000697b1      0x2ee ./stream.o
 .debug_info    0x0000000000069a9f     0x4a3f ./vsf_usbd.o
 .debug_info    0x000000000006e4de     0x3126 ./vsfusbd_CDC.o
 .debug_info    0x0000000000071604     0x30f4 ./vsfusbd_CDCACM.o
 .debug_info    0x00000000000746f8      0x785 ./buffer.o
 .debug_info    0x0000000000074e7d     0x2b13 ./USB_TO_XXX.o
 .debug_info    0x0000000000077990     0x2533 ./USB_TO_CLKO.o
 .debug_info    0x0000000000079ec3     0x254e ./USB_TO_SPI.o
 .debug_info    0x000000000007c411     0x256f ./USB_TO_IIC.o
 .debug_info    0x000000000007e980     0x2566 ./USB_TO_GPIO.o
 .debug_info    0x0000000000080ee6     0x257a ./USB_TO_PWM.o
 .debug_info    0x0000000000083460     0x25a4 ./USB_TO_ADC.o
 .debug_info    0x0000000000085a04     0x2533 ./USB_TO_POWER.o
 .debug_info    0x0000000000087f37     0x2562 ./USB_TO_C2.o
 .debug_info    0x000000000008a499     0x25a2 ./USB_TO_ISSP.o
 .debug_info    0x000000000008ca3b     0x254e ./USB_TO_LPCICP.o
 .debug_info    0x000000000008ef89     0x265f ./USB_TO_MSP430_JTAG.o
 .debug_info    0x00000000000915e8     0x2601 ./USB_TO_JTAG_HL.o
 .debug_info    0x0000000000093be9     0x256d ./USB_TO_SWD.o
 .debug_info    0x0000000000096156     0x2578 ./USB_TO_JTAG_LL.o
 .debug_info    0x00000000000986ce     0x2567 ./USB_TO_SWIM.o
 .debug_info    0x000000000009ac35     0x2553 ./USB_TO_JTAG_RAW.o
 .debug_info    0x000000000009d188     0x2588 ./USB_TO_BDM.o
 .debug_info    0x000000000009f710     0x2585 ./USB_TO_DUSI.o
 .debug_info    0x00000000000a1c95     0x2629 ./USB_TO_MICROWIRE.o
 .debug_info    0x00000000000a42be     0x25a6 ./CommandProcessor.o
 .debug_info    0x00000000000a6864      0x8a9 /usr/lib/gcc/arm-none-eabi/7.3.1/../../../arm-none-eabi/lib/libc.a(lib_a-impure.o)
 .debug_info    0x00000000000a710d      0x926 /usr/lib/gcc/arm-none-eabi/7.3.1/../../../arm-none-eabi/lib/libc.a(lib_a-malloc.o)
 .debug_info    0x00000000000a7a33      0xdfc /usr/lib/gcc/arm-none-eabi/7.3.1/../../../arm-none-eabi/lib/libc.a(lib_a-mallocr.o)
 .debug_info    0x00000000000a882f      0x8dc /usr/lib/gcc/arm-none-eabi/7.3.1/../../../arm-none-eabi/lib/libc.a(lib_a-mlock.o)
 .debug_info    0x00000000000a910b      0x95f /usr/lib/gcc/arm-none-eabi/7.3.1/../../../arm-none-eabi/lib/libc.a(lib_a-sbrkr.o)
 .debug_info    0x00000000000a9a6a      0xc97 /usr/lib/gcc/arm-none-eabi/7.3.1/../../../arm-none-eabi/lib/libc.a(lib_a-freer.o)
 .debug_info    0x00000000000aa701      0xa13 /usr/lib/gcc/arm-none-eabi/7.3.1/../../../arm-none-eabi/lib/libc.a(lib_a-reent.o)

.debug_abbrev   0x0000000000000000     0xbd97
 *(.debug_abbrev)
 .debug_abbrev  0x0000000000000000       0x12 ./startup_stm32f10x_md.o
 .debug_abbrev  0x0000000000000012       0xbd ./core_cm3.o
 .debug_abbrev  0x00000000000000cf      0x192 ./misc.o
 .debug_abbrev  0x0000000000000261      0x1d1 ./stm32f10x_dma.o
 .debug_abbrev  0x0000000000000432      0x220 ./stm32f10x_gpio.o
 .debug_abbrev  0x0000000000000652      0x1f7 ./stm32f10x_rcc.o
 .debug_abbrev  0x0000000000000849      0x1fb ./stm32f10x_spi.o
 .debug_abbrev  0x0000000000000a44      0x2e7 ./stm32f10x_tim.o
 .debug_abbrev  0x0000000000000d2b       0xbf ./usb_mem.o
 .debug_abbrev  0x0000000000000dea      0x233 ./usb_regs.o
 .debug_abbrev  0x000000000000101d      0x1fe ./main.o
 .debug_abbrev  0x000000000000121b      0x313 ./usb_protocol_Versaloon.o
 .debug_abbrev  0x000000000000152e      0x2a8 ./vsfusbd_Versaloon.o
 .debug_abbrev  0x00000000000017d6      0x2e7 ./compiler_string.o
 .debug_abbrev  0x0000000000001abd      0x215 ./syscall.o
 .debug_abbrev  0x0000000000001cd2      0x245 ./app_interfaces.o
 .debug_abbrev  0x0000000000001f17      0x24a ./GPIO.o
 .debug_abbrev  0x0000000000002161      0x1d0 ./CLKO.o
 .debug_abbrev  0x0000000000002331      0x216 ./USART.o
 .debug_abbrev  0x0000000000002547      0x396 ./SPI.o
 .debug_abbrev  0x00000000000028dd      0x4ab ./JTAG_TAP.o
 .debug_abbrev  0x0000000000002d88      0x395 ./SWD.o
 .debug_abbrev  0x000000000000311d      0x3ce ./SWIM.o
 .debug_abbrev  0x00000000000034eb      0x215 ./DUSI.o
 .debug_abbrev  0x0000000000003700      0x338 ./MicroWire.o
 .debug_abbrev  0x0000000000003a38      0x2d8 ./PowerExt.o
 .debug_abbrev  0x0000000000003d10      0x39e ./IIC.o
 .debug_abbrev  0x00000000000040ae      0x251 ./C2.o
 .debug_abbrev  0x00000000000042ff      0x2f5 ./ISSP.o
 .debug_abbrev  0x00000000000045f4      0x31f ./LPC_ICP.o
 .debug_abbrev  0x0000000000004913      0x3a1 ./MSP430_JTAG.o
 .debug_abbrev  0x0000000000004cb4      0x3a5 ./BDM.o
 .debug_abbrev  0x0000000000005059      0x25c ./PWM.o
 .debug_abbrev  0x00000000000052b5      0x1e9 ./ADC.o
 .debug_abbrev  0x000000000000549e      0x17f ./interfaces.o
 .debug_abbrev  0x000000000000561d      0x326 ./core.o
 .debug_abbrev  0x0000000000005943      0x1f2 ./STM32_CLKO.o
 .debug_abbrev  0x0000000000005b35      0x202 ./STM32_GPIO.o
 .debug_abbrev  0x0000000000005d37      0x488 ./STM32_USBD.o
 .debug_abbrev  0x00000000000061bf      0x350 ./STM32_SPI.o
 .debug_abbrev  0x000000000000650f      0x207 ./STM32_TIM.o
 .debug_abbrev  0x0000000000006716      0x24d ./STM32_EINT.o
 .debug_abbrev  0x0000000000006963      0x2ff ./STM32_ADC.o
 .debug_abbrev  0x0000000000006c62      0x28f ./STM32_USART.o
 .debug_abbrev  0x0000000000006ef1      0x315 ./STM32_EBI.o
 .debug_abbrev  0x0000000000007206      0x302 ./STM32_FLASH.o
 .debug_abbrev  0x0000000000007508      0x2b3 ./STM32_SDIO.o
 .debug_abbrev  0x00000000000077bb      0x248 ./usart_stream.o
 .debug_abbrev  0x0000000000007a03       0xce ./stream.o
 .debug_abbrev  0x0000000000007ad1      0x598 ./vsf_usbd.o
 .debug_abbrev  0x0000000000008069      0x298 ./vsfusbd_CDC.o
 .debug_abbrev  0x0000000000008301      0x277 ./vsfusbd_CDCACM.o
 .debug_abbrev  0x0000000000008578      0x1c7 ./buffer.o
 .debug_abbrev  0x000000000000873f      0x2dc ./USB_TO_XXX.o
 .debug_abbrev  0x0000000000008a1b      0x1cc ./USB_TO_CLKO.o
 .debug_abbrev  0x0000000000008be7      0x1c3 ./USB_TO_SPI.o
 .debug_abbrev  0x0000000000008daa      0x1cd ./USB_TO_IIC.o
 .debug_abbrev  0x0000000000008f77      0x1c1 ./USB_TO_GPIO.o
 .debug_abbrev  0x0000000000009138      0x1d2 ./USB_TO_PWM.o
 .debug_abbrev  0x000000000000930a      0x1bd ./USB_TO_ADC.o
 .debug_abbrev  0x00000000000094c7      0x1c1 ./USB_TO_POWER.o
 .debug_abbrev  0x0000000000009688      0x1d2 ./USB_TO_C2.o
 .debug_abbrev  0x000000000000985a      0x1c0 ./USB_TO_ISSP.o
 .debug_abbrev  0x0000000000009a1a      0x1c3 ./USB_TO_LPCICP.o
 .debug_abbrev  0x0000000000009bdd      0x1f0 ./USB_TO_MSP430_JTAG.o
 .debug_abbrev  0x0000000000009dcd      0x1f1 ./USB_TO_JTAG_HL.o
 .debug_abbrev  0x0000000000009fbe      0x1cf ./USB_TO_SWD.o
 .debug_abbrev  0x000000000000a18d      0x1d4 ./USB_TO_JTAG_LL.o
 .debug_abbrev  0x000000000000a361      0x1b4 ./USB_TO_SWIM.o
 .debug_abbrev  0x000000000000a515      0x1c0 ./USB_TO_JTAG_RAW.o
 .debug_abbrev  0x000000000000a6d5      0x1c0 ./USB_TO_BDM.o
 .debug_abbrev  0x000000000000a895      0x1c3 ./USB_TO_DUSI.o
 .debug_abbrev  0x000000000000aa58      0x1c0 ./USB_TO_MICROWIRE.o
 .debug_abbrev  0x000000000000ac18      0x244 ./CommandProcessor.o
 .debug_abbrev  0x000000000000ae5c      0x192 /usr/lib/gcc/arm-none-eabi/7.3.1/../../../arm-none-eabi/lib/libc.a(lib_a-impure.o)
 .debug_abbrev  0x000000000000afee      0x1fc /usr/lib/gcc/arm-none-eabi/7.3.1/../../../arm-none-eabi/lib/libc.a(lib_a-malloc.o)
 .debug_abbrev  0x000000000000b1ea      0x2cd /usr/lib/gcc/arm-none-eabi/7.3.1/../../../arm-none-eabi/lib/libc.a(lib_a-mallocr.o)
 .debug_abbrev  0x000000000000b4b7      0x1d7 /usr/lib/gcc/arm-none-eabi/7.3.1/../../../arm-none-eabi/lib/libc.a(lib_a-mlock.o)
 .debug_abbrev  0x000000000000b68e      0x215 /usr/lib/gcc/arm-none-eabi/7.3.1/../../../arm-none-eabi/lib/libc.a(lib_a-sbrkr.o)
 .debug_abbrev  0x000000000000b8a3      0x273 /usr/lib/gcc/arm-none-eabi/7.3.1/../../../arm-none-eabi/lib/libc.a(lib_a-freer.o)
 .debug_abbrev  0x000000000000bb16      0x281 /usr/lib/gcc/arm-none-eabi/7.3.1/../../../arm-none-eabi/lib/libc.a(lib_a-reent.o)

.debug_line     0x0000000000000000     0xf6ff
 *(.debug_line)
 .debug_line    0x0000000000000000       0xeb ./startup_stm32f10x_md.o
 .debug_line    0x00000000000000eb      0x154 ./core_cm3.o
 .debug_line    0x000000000000023f      0x27a ./misc.o
 .debug_line    0x00000000000004b9      0x2f7 ./stm32f10x_dma.o
 .debug_line    0x00000000000007b0      0x364 ./stm32f10x_gpio.o
 .debug_line    0x0000000000000b14      0x3a0 ./stm32f10x_rcc.o
 .debug_line    0x0000000000000eb4      0x394 ./stm32f10x_spi.o
 .debug_line    0x0000000000001248      0x73f ./stm32f10x_tim.o
 .debug_line    0x0000000000001987      0x273 ./usb_mem.o
 .debug_line    0x0000000000001bfa      0x405 ./usb_regs.o
 .debug_line    0x0000000000001fff      0x3a8 ./main.o
 .debug_line    0x00000000000023a7      0x544 ./usb_protocol_Versaloon.o
 .debug_line    0x00000000000028eb      0x35e ./vsfusbd_Versaloon.o
 .debug_line    0x0000000000002c49      0x15f ./compiler_string.o
 .debug_line    0x0000000000002da8      0x12e ./syscall.o
 .debug_line    0x0000000000002ed6      0x2a1 ./app_interfaces.o
 .debug_line    0x0000000000003177      0x34d ./GPIO.o
 .debug_line    0x00000000000034c4      0x25a ./CLKO.o
 .debug_line    0x000000000000371e      0x304 ./USART.o
 .debug_line    0x0000000000003a22      0x326 ./SPI.o
 .debug_line    0x0000000000003d48      0x689 ./JTAG_TAP.o
 .debug_line    0x00000000000043d1      0x381 ./SWD.o
 .debug_line    0x0000000000004752      0x49f ./SWIM.o
 .debug_line    0x0000000000004bf1      0x2a4 ./DUSI.o
 .debug_line    0x0000000000004e95      0x30f ./MicroWire.o
 .debug_line    0x00000000000051a4      0x2b9 ./PowerExt.o
 .debug_line    0x000000000000545d      0x349 ./IIC.o
 .debug_line    0x00000000000057a6      0x31c ./C2.o
 .debug_line    0x0000000000005ac2      0x3c4 ./ISSP.o
 .debug_line    0x0000000000005e86      0x349 ./LPC_ICP.o
 .debug_line    0x00000000000061cf      0x40c ./MSP430_JTAG.o
 .debug_line    0x00000000000065db      0x3fb ./BDM.o
 .debug_line    0x00000000000069d6      0x39b ./PWM.o
 .debug_line    0x0000000000006d71      0x256 ./ADC.o
 .debug_line    0x0000000000006fc7      0x227 ./interfaces.o
 .debug_line    0x00000000000071ee      0x3b2 ./core.o
 .debug_line    0x00000000000075a0      0x29e ./STM32_CLKO.o
 .debug_line    0x000000000000783e      0x2f8 ./STM32_GPIO.o
 .debug_line    0x0000000000007b36      0x57f ./STM32_USBD.o
 .debug_line    0x00000000000080b5      0x46e ./STM32_SPI.o
 .debug_line    0x0000000000008523      0x328 ./STM32_TIM.o
 .debug_line    0x000000000000884b      0x310 ./STM32_EINT.o
 .debug_line    0x0000000000008b5b      0x353 ./STM32_ADC.o
 .debug_line    0x0000000000008eae      0x338 ./STM32_USART.o
 .debug_line    0x00000000000091e6      0x4aa ./STM32_EBI.o
 .debug_line    0x0000000000009690      0x33c ./STM32_FLASH.o
 .debug_line    0x00000000000099cc      0x380 ./STM32_SDIO.o
 .debug_line    0x0000000000009d4c      0x308 ./usart_stream.o
 .debug_line    0x000000000000a054      0x14f ./stream.o
 .debug_line    0x000000000000a1a3      0x845 ./vsf_usbd.o
 .debug_line    0x000000000000a9e8      0x39c ./vsfusbd_CDC.o
 .debug_line    0x000000000000ad84      0x3cf ./vsfusbd_CDCACM.o
 .debug_line    0x000000000000b153      0x1cb ./buffer.o
 .debug_line    0x000000000000b31e      0x3f6 ./USB_TO_XXX.o
 .debug_line    0x000000000000b714      0x28d ./USB_TO_CLKO.o
 .debug_line    0x000000000000b9a1      0x299 ./USB_TO_SPI.o
 .debug_line    0x000000000000bc3a      0x2a1 ./USB_TO_IIC.o
 .debug_line    0x000000000000bedb      0x2a3 ./USB_TO_GPIO.o
 .debug_line    0x000000000000c17e      0x298 ./USB_TO_PWM.o
 .debug_line    0x000000000000c416      0x299 ./USB_TO_ADC.o
 .debug_line    0x000000000000c6af      0x286 ./USB_TO_POWER.o
 .debug_line    0x000000000000c935      0x2a0 ./USB_TO_C2.o
 .debug_line    0x000000000000cbd5      0x2b2 ./USB_TO_ISSP.o
 .debug_line    0x000000000000ce87      0x2a3 ./USB_TO_LPCICP.o
 .debug_line    0x000000000000d12a      0x2ea ./USB_TO_MSP430_JTAG.o
 .debug_line    0x000000000000d414      0x2e3 ./USB_TO_JTAG_HL.o
 .debug_line    0x000000000000d6f7      0x2a6 ./USB_TO_SWD.o
 .debug_line    0x000000000000d99d      0x2b3 ./USB_TO_JTAG_LL.o
 .debug_line    0x000000000000dc50      0x2ad ./USB_TO_SWIM.o
 .debug_line    0x000000000000defd      0x293 ./USB_TO_JTAG_RAW.o
 .debug_line    0x000000000000e190      0x2a8 ./USB_TO_BDM.o
 .debug_line    0x000000000000e438      0x29a ./USB_TO_DUSI.o
 .debug_line    0x000000000000e6d2      0x2d0 ./USB_TO_MICROWIRE.o
 .debug_line    0x000000000000e9a2      0x278 ./CommandProcessor.o
 .debug_line    0x000000000000ec1a       0xce /usr/lib/gcc/arm-none-eabi/7.3.1/../../../arm-none-eabi/lib/libc.a(lib_a-impure.o)
 .debug_line    0x000000000000ece8      0x126 /usr/lib/gcc/arm-none-eabi/7.3.1/../../../arm-none-eabi/lib/libc.a(lib_a-malloc.o)
 .debug_line    0x000000000000ee0e      0x350 /usr/lib/gcc/arm-none-eabi/7.3.1/../../../arm-none-eabi/lib/libc.a(lib_a-mallocr.o)
 .debug_line    0x000000000000f15e      0x114 /usr/lib/gcc/arm-none-eabi/7.3.1/../../../arm-none-eabi/lib/libc.a(lib_a-mlock.o)
 .debug_line    0x000000000000f272      0x131 /usr/lib/gcc/arm-none-eabi/7.3.1/../../../arm-none-eabi/lib/libc.a(lib_a-sbrkr.o)
 .debug_line    0x000000000000f3a3      0x213 /usr/lib/gcc/arm-none-eabi/7.3.1/../../../arm-none-eabi/lib/libc.a(lib_a-freer.o)
 .debug_line    0x000000000000f5b6      0x149 /usr/lib/gcc/arm-none-eabi/7.3.1/../../../arm-none-eabi/lib/libc.a(lib_a-reent.o)

.debug_frame    0x0000000000000000     0x4d8c
 *(.debug_frame)
 .debug_frame   0x0000000000000000      0x170 ./core_cm3.o
 .debug_frame   0x0000000000000170       0x6c ./misc.o
 .debug_frame   0x00000000000001dc       0xb8 ./stm32f10x_dma.o
 .debug_frame   0x0000000000000294      0x170 ./stm32f10x_gpio.o
 .debug_frame   0x0000000000000404      0x220 ./stm32f10x_rcc.o
 .debug_frame   0x0000000000000624      0x1c0 ./stm32f10x_spi.o
 .debug_frame   0x00000000000007e4      0x6ac ./stm32f10x_tim.o
 .debug_frame   0x0000000000000e90       0x38 ./usb_mem.o
 .debug_frame   0x0000000000000ec8      0x3d0 ./usb_regs.o
 .debug_frame   0x0000000000001298       0x28 ./main.o
 .debug_frame   0x00000000000012c0       0x68 ./usb_protocol_Versaloon.o
 .debug_frame   0x0000000000001328       0x6c ./vsfusbd_Versaloon.o
 .debug_frame   0x0000000000001394      0x124 ./compiler_string.o
 .debug_frame   0x00000000000014b8       0x90 ./syscall.o
 .debug_frame   0x0000000000001548      0x104 ./app_interfaces.o
 .debug_frame   0x000000000000164c       0x94 ./GPIO.o
 .debug_frame   0x00000000000016e0       0x9c ./CLKO.o
 .debug_frame   0x000000000000177c       0xa4 ./USART.o
 .debug_frame   0x0000000000001820      0x110 ./SPI.o
 .debug_frame   0x0000000000001930      0x358 ./JTAG_TAP.o
 .debug_frame   0x0000000000001c88      0x1f0 ./SWD.o
 .debug_frame   0x0000000000001e78      0x148 ./SWIM.o
 .debug_frame   0x0000000000001fc0       0x90 ./DUSI.o
 .debug_frame   0x0000000000002050       0xe0 ./MicroWire.o
 .debug_frame   0x0000000000002130       0xb8 ./PowerExt.o
 .debug_frame   0x00000000000021e8      0x1b8 ./IIC.o
 .debug_frame   0x00000000000023a0      0x188 ./C2.o
 .debug_frame   0x0000000000002528      0x148 ./ISSP.o
 .debug_frame   0x0000000000002670      0x124 ./LPC_ICP.o
 .debug_frame   0x0000000000002794      0x18c ./MSP430_JTAG.o
 .debug_frame   0x0000000000002920       0xc0 ./BDM.o
 .debug_frame   0x00000000000029e0       0xb8 ./PWM.o
 .debug_frame   0x0000000000002a98       0xb0 ./ADC.o
 .debug_frame   0x0000000000002b48       0x20 ./interfaces.o
 .debug_frame   0x0000000000002b68      0x170 ./core.o
 .debug_frame   0x0000000000002cd8       0x70 ./STM32_CLKO.o
 .debug_frame   0x0000000000002d48       0xc4 ./STM32_GPIO.o
 .debug_frame   0x0000000000002e0c      0x4d8 ./STM32_USBD.o
 .debug_frame   0x00000000000032e4      0x154 ./STM32_SPI.o
 .debug_frame   0x0000000000003438       0xb8 ./STM32_TIM.o
 .debug_frame   0x00000000000034f0      0x128 ./STM32_EINT.o
 .debug_frame   0x0000000000003618       0xdc ./STM32_ADC.o
 .debug_frame   0x00000000000036f4       0xd4 ./STM32_USART.o
 .debug_frame   0x00000000000037c8      0x200 ./STM32_EBI.o
 .debug_frame   0x00000000000039c8      0x198 ./STM32_FLASH.o
 .debug_frame   0x0000000000003b60      0x130 ./STM32_SDIO.o
 .debug_frame   0x0000000000003c90       0xd0 ./usart_stream.o
 .debug_frame   0x0000000000003d60       0x84 ./stream.o
 .debug_frame   0x0000000000003de4      0x558 ./vsf_usbd.o
 .debug_frame   0x000000000000433c       0xe8 ./vsfusbd_CDC.o
 .debug_frame   0x0000000000004424       0xc8 ./vsfusbd_CDCACM.o
 .debug_frame   0x00000000000044ec      0x174 ./buffer.o
 .debug_frame   0x0000000000004660       0x50 ./USB_TO_XXX.o
 .debug_frame   0x00000000000046b0       0x38 ./USB_TO_CLKO.o
 .debug_frame   0x00000000000046e8       0x38 ./USB_TO_SPI.o
 .debug_frame   0x0000000000004720       0x40 ./USB_TO_IIC.o
 .debug_frame   0x0000000000004760       0x40 ./USB_TO_GPIO.o
 .debug_frame   0x00000000000047a0       0x38 ./USB_TO_PWM.o
 .debug_frame   0x00000000000047d8       0x3c ./USB_TO_ADC.o
 .debug_frame   0x0000000000004814       0x3c ./USB_TO_POWER.o
 .debug_frame   0x0000000000004850       0x3c ./USB_TO_C2.o
 .debug_frame   0x000000000000488c       0x40 ./USB_TO_ISSP.o
 .debug_frame   0x00000000000048cc       0x40 ./USB_TO_LPCICP.o
 .debug_frame   0x000000000000490c       0x40 ./USB_TO_MSP430_JTAG.o
 .debug_frame   0x000000000000494c       0x40 ./USB_TO_JTAG_HL.o
 .debug_frame   0x000000000000498c       0x40 ./USB_TO_SWD.o
 .debug_frame   0x00000000000049cc       0x40 ./USB_TO_JTAG_LL.o
 .debug_frame   0x0000000000004a0c       0x3c ./USB_TO_SWIM.o
 .debug_frame   0x0000000000004a48       0x3c ./USB_TO_JTAG_RAW.o
 .debug_frame   0x0000000000004a84       0x40 ./USB_TO_BDM.o
 .debug_frame   0x0000000000004ac4       0x3c ./USB_TO_DUSI.o
 .debug_frame   0x0000000000004b00       0x40 ./USB_TO_MICROWIRE.o
 .debug_frame   0x0000000000004b40       0x30 ./CommandProcessor.o
 .debug_frame   0x0000000000004b70       0x48 /usr/lib/gcc/arm-none-eabi/7.3.1/../../../arm-none-eabi/lib/libc.a(lib_a-malloc.o)
 .debug_frame   0x0000000000004bb8       0x94 /usr/lib/gcc/arm-none-eabi/7.3.1/../../../arm-none-eabi/lib/libc.a(lib_a-mallocr.o)
 .debug_frame   0x0000000000004c4c       0x30 /usr/lib/gcc/arm-none-eabi/7.3.1/../../../arm-none-eabi/lib/libc.a(lib_a-mlock.o)
 .debug_frame   0x0000000000004c7c       0x34 /usr/lib/gcc/arm-none-eabi/7.3.1/../../../arm-none-eabi/lib/libc.a(lib_a-sbrkr.o)
 .debug_frame   0x0000000000004cb0       0x74 /usr/lib/gcc/arm-none-eabi/7.3.1/../../../arm-none-eabi/lib/libc.a(lib_a-freer.o)
 .debug_frame   0x0000000000004d24       0x68 /usr/lib/gcc/arm-none-eabi/7.3.1/../../../arm-none-eabi/lib/libc.a(lib_a-reent.o)

.debug_str      0x0000000000000000     0x8bdb
 *(.debug_str)
 .debug_str     0x0000000000000000       0xe3 ./startup_stm32f10x_md.o
 .debug_str     0x00000000000000e3      0x2a2 ./core_cm3.o
                                        0x356 (size before relaxing)
 .debug_str     0x0000000000000385      0x2bb ./misc.o
                                        0x441 (size before relaxing)
 .debug_str     0x0000000000000640      0x233 ./stm32f10x_dma.o
                                        0x415 (size before relaxing)
 .debug_str     0x0000000000000873      0x3c4 ./stm32f10x_gpio.o
                                        0x5b9 (size before relaxing)
 .debug_str     0x0000000000000c37      0x461 ./stm32f10x_rcc.o
                                        0x6a3 (size before relaxing)
 .debug_str     0x0000000000001098      0x3dc ./stm32f10x_spi.o
                                        0x6c6 (size before relaxing)
 .debug_str     0x0000000000001474      0xbac ./stm32f10x_tim.o
                                        0xe94 (size before relaxing)
 .debug_str     0x0000000000002020       0xca ./usb_mem.o
                                        0x27c (size before relaxing)
 .debug_str     0x00000000000020ea      0x439 ./usb_regs.o
                                        0x604 (size before relaxing)
 .debug_str     0x0000000000002523      0xd56 ./main.o
                                       0x16ae (size before relaxing)
 .debug_str     0x0000000000003279      0x9b8 ./usb_protocol_Versaloon.o
                                       0x2178 (size before relaxing)
 .debug_str     0x0000000000003c31       0xf5 ./vsfusbd_Versaloon.o
                                       0x171a (size before relaxing)
 .debug_str     0x0000000000003d26      0x409 ./compiler_string.o
                                        0x5f5 (size before relaxing)
 .debug_str     0x000000000000412f      0x163 ./syscall.o
                                        0x713 (size before relaxing)
 .debug_str     0x0000000000004292       0x9a ./app_interfaces.o
                                       0x127e (size before relaxing)
 .debug_str     0x000000000000432c       0x54 ./GPIO.o
                                       0x121d (size before relaxing)
 .debug_str     0x0000000000004380       0x24 ./CLKO.o
                                       0x11b7 (size before relaxing)
 .debug_str     0x00000000000043a4       0xcc ./USART.o
                                       0x134b (size before relaxing)
 .debug_str     0x0000000000004470       0xd2 ./SPI.o
                                       0x1299 (size before relaxing)
 .debug_str     0x0000000000004542      0x4eb ./JTAG_TAP.o
                                       0x18b2 (size before relaxing)
 .debug_str     0x0000000000004a2d      0x169 ./SWD.o
                                       0x130e (size before relaxing)
 .debug_str     0x0000000000004b96      0x1ed ./SWIM.o
                                       0x189e (size before relaxing)
 .debug_str     0x0000000000004d83       0x4c ./DUSI.o
                                       0x1254 (size before relaxing)
 .debug_str     0x0000000000004dcf      0x18e ./MicroWire.o
                                       0x1334 (size before relaxing)
 .debug_str     0x0000000000004f5d       0xec ./PowerExt.o
                                       0x124e (size before relaxing)
 .debug_str     0x0000000000005049      0x2b7 ./IIC.o
                                       0x1471 (size before relaxing)
 .debug_str     0x0000000000005300       0xa8 ./C2.o
                                       0x1226 (size before relaxing)
 .debug_str     0x00000000000053a8       0xdb ./ISSP.o
                                       0x1284 (size before relaxing)
 .debug_str     0x0000000000005483      0x125 ./LPC_ICP.o
                                       0x12ce (size before relaxing)
 .debug_str     0x00000000000055a8      0x18b ./MSP430_JTAG.o
                                       0x132b (size before relaxing)
 .debug_str     0x0000000000005733      0x111 ./BDM.o
                                       0x17d3 (size before relaxing)
 .debug_str     0x0000000000005844       0x7c ./PWM.o
                                       0x173e (size before relaxing)
 .debug_str     0x00000000000058c0       0x22 ./ADC.o
                                       0x1211 (size before relaxing)
 .debug_str     0x00000000000058e2       0x2b ./interfaces.o
                                       0x117f (size before relaxing)
 .debug_str     0x000000000000590d      0x3e2 ./core.o
                                        0x935 (size before relaxing)
 .debug_str     0x0000000000005cef       0x91 ./STM32_CLKO.o
                                       0x1448 (size before relaxing)
 .debug_str     0x0000000000005d80       0xe6 ./STM32_GPIO.o
                                       0x12d3 (size before relaxing)
 .debug_str     0x0000000000005e66      0x568 ./STM32_USBD.o
                                       0x1b9c (size before relaxing)
 .debug_str     0x00000000000063ce      0x1b0 ./STM32_SPI.o
                                       0x1659 (size before relaxing)
 .debug_str     0x000000000000657e      0x116 ./STM32_TIM.o
                                       0x13ed (size before relaxing)
 .debug_str     0x0000000000006694      0x194 ./STM32_EINT.o
                                       0x1326 (size before relaxing)
 .debug_str     0x0000000000006828      0x150 ./STM32_ADC.o
                                       0x152a (size before relaxing)
 .debug_str     0x0000000000006978      0x176 ./STM32_USART.o
                                       0x15c4 (size before relaxing)
 .debug_str     0x0000000000006aee      0x2f7 ./STM32_EBI.o
                                       0x16dd (size before relaxing)
 .debug_str     0x0000000000006de5      0x202 ./STM32_FLASH.o
                                       0x13d2 (size before relaxing)
 .debug_str     0x0000000000006fe7      0x203 ./STM32_SDIO.o
                                       0x15e4 (size before relaxing)
 .debug_str     0x00000000000071ea       0x67 ./usart_stream.o
                                       0x12e4 (size before relaxing)
 .debug_str     0x0000000000007251       0x6d ./stream.o
                                        0x2cc (size before relaxing)
 .debug_str     0x00000000000072be      0x826 ./vsf_usbd.o
                                       0x1f3c (size before relaxing)
 .debug_str     0x0000000000007ae4      0x232 ./vsfusbd_CDC.o
                                       0x1937 (size before relaxing)
 .debug_str     0x0000000000007d16      0x22f ./vsfusbd_CDCACM.o
                                       0x1a0c (size before relaxing)
 .debug_str     0x0000000000007f45      0x16a ./buffer.o
                                        0x3d2 (size before relaxing)
 .debug_str     0x00000000000080af      0x2f5 ./USB_TO_XXX.o
                                       0x14c6 (size before relaxing)
 .debug_str     0x00000000000083a4       0x2d ./USB_TO_CLKO.o
                                       0x11e4 (size before relaxing)
 .debug_str     0x00000000000083d1       0x2b ./USB_TO_SPI.o
                                       0x11f1 (size before relaxing)
 .debug_str     0x00000000000083fc       0x21 ./USB_TO_IIC.o
                                       0x11fe (size before relaxing)
 .debug_str     0x000000000000841d       0x34 ./USB_TO_GPIO.o
                                       0x120d (size before relaxing)
 .debug_str     0x0000000000008451       0x21 ./USB_TO_PWM.o
                                       0x11ed (size before relaxing)
 .debug_str     0x0000000000008472       0x2c ./USB_TO_ADC.o
                                       0x1201 (size before relaxing)
 .debug_str     0x000000000000849e       0x23 ./USB_TO_POWER.o
                                       0x11ee (size before relaxing)
 .debug_str     0x00000000000084c1       0x20 ./USB_TO_C2.o
                                       0x11e0 (size before relaxing)
 .debug_str     0x00000000000084e1       0x2d ./USB_TO_ISSP.o
                                       0x1201 (size before relaxing)
 .debug_str     0x000000000000850e       0x24 ./USB_TO_LPCICP.o
                                       0x11e8 (size before relaxing)
 .debug_str     0x0000000000008532       0x30 ./USB_TO_MSP430_JTAG.o
                                       0x123a (size before relaxing)
 .debug_str     0x0000000000008562       0x3a ./USB_TO_JTAG_HL.o
                                       0x1234 (size before relaxing)
 .debug_str     0x000000000000859c       0x2a ./USB_TO_SWD.o
                                       0x11f2 (size before relaxing)
 .debug_str     0x00000000000085c6       0x2a ./USB_TO_JTAG_LL.o
                                       0x1213 (size before relaxing)
 .debug_str     0x00000000000085f0       0x35 ./USB_TO_SWIM.o
                                       0x11f7 (size before relaxing)
 .debug_str     0x0000000000008625       0x36 ./USB_TO_JTAG_RAW.o
                                       0x1208 (size before relaxing)
 .debug_str     0x000000000000865b       0x21 ./USB_TO_BDM.o
                                       0x1202 (size before relaxing)
 .debug_str     0x000000000000867c       0x2a ./USB_TO_DUSI.o
                                       0x120a (size before relaxing)
 .debug_str     0x00000000000086a6       0x4c ./USB_TO_MICROWIRE.o
                                       0x1274 (size before relaxing)
 .debug_str     0x00000000000086f2       0x50 ./CommandProcessor.o
                                       0x1208 (size before relaxing)
 .debug_str     0x0000000000008742       0xcf /usr/lib/gcc/arm-none-eabi/7.3.1/../../../arm-none-eabi/lib/libc.a(lib_a-impure.o)
                                        0x543 (size before relaxing)
 .debug_str     0x0000000000008811       0x86 /usr/lib/gcc/arm-none-eabi/7.3.1/../../../arm-none-eabi/lib/libc.a(lib_a-malloc.o)
                                        0x574 (size before relaxing)
 .debug_str     0x0000000000008897      0x24b /usr/lib/gcc/arm-none-eabi/7.3.1/../../../arm-none-eabi/lib/libc.a(lib_a-mallocr.o)
                                        0x7ab (size before relaxing)
 .debug_str     0x0000000000008ae2       0x43 /usr/lib/gcc/arm-none-eabi/7.3.1/../../../arm-none-eabi/lib/libc.a(lib_a-mlock.o)
                                        0x56f (size before relaxing)
 .debug_str     0x0000000000008b25       0x33 /usr/lib/gcc/arm-none-eabi/7.3.1/../../../arm-none-eabi/lib/libc.a(lib_a-sbrkr.o)
                                        0x586 (size before relaxing)
 .debug_str     0x0000000000008b58       0x2e /usr/lib/gcc/arm-none-eabi/7.3.1/../../../arm-none-eabi/lib/libc.a(lib_a-freer.o)
                                        0x724 (size before relaxing)
 .debug_str     0x0000000000008b86       0x55 /usr/lib/gcc/arm-none-eabi/7.3.1/../../../arm-none-eabi/lib/libc.a(lib_a-reent.o)
                                        0x57f (size before relaxing)

.debug_loc      0x0000000000000000    0x1774d
 *(.debug_loc)
 .debug_loc     0x0000000000000000      0x33a ./core_cm3.o
 .debug_loc     0x000000000000033a      0x16c ./misc.o
 .debug_loc     0x00000000000004a6      0x141 ./stm32f10x_dma.o
 .debug_loc     0x00000000000005e7      0x577 ./stm32f10x_gpio.o
 .debug_loc     0x0000000000000b5e      0x6b8 ./stm32f10x_rcc.o
 .debug_loc     0x0000000000001216      0x567 ./stm32f10x_spi.o
 .debug_loc     0x000000000000177d     0x194d ./stm32f10x_tim.o
 .debug_loc     0x00000000000030ca      0x21e ./usb_mem.o
 .debug_loc     0x00000000000032e8      0xad7 ./usb_regs.o
 .debug_loc     0x0000000000003dbf       0xf3 ./usb_protocol_Versaloon.o
 .debug_loc     0x0000000000003eb2      0x3a4 ./vsfusbd_Versaloon.o
 .debug_loc     0x0000000000004256      0x491 ./compiler_string.o
 .debug_loc     0x00000000000046e7      0x113 ./syscall.o
 .debug_loc     0x00000000000047fa      0x3ec ./app_interfaces.o
 .debug_loc     0x0000000000004be6      0x334 ./GPIO.o
 .debug_loc     0x0000000000004f1a      0x14e ./CLKO.o
 .debug_loc     0x0000000000005068      0x386 ./USART.o
 .debug_loc     0x00000000000053ee      0x50c ./SPI.o
 .debug_loc     0x00000000000058fa     0x1783 ./JTAG_TAP.o
 .debug_loc     0x000000000000707d      0x69e ./SWD.o
 .debug_loc     0x000000000000771b      0x946 ./SWIM.o
 .debug_loc     0x0000000000008061      0x233 ./DUSI.o
 .debug_loc     0x0000000000008294      0x5cf ./MicroWire.o
 .debug_loc     0x0000000000008863      0x147 ./PowerExt.o
 .debug_loc     0x00000000000089aa      0x6fd ./IIC.o
 .debug_loc     0x00000000000090a7      0x3dc ./C2.o
 .debug_loc     0x0000000000009483      0x596 ./ISSP.o
 .debug_loc     0x0000000000009a19      0x478 ./LPC_ICP.o
 .debug_loc     0x0000000000009e91      0x7bb ./MSP430_JTAG.o
 .debug_loc     0x000000000000a64c      0x703 ./BDM.o
 .debug_loc     0x000000000000ad4f      0x2ea ./PWM.o
 .debug_loc     0x000000000000b039      0x100 ./ADC.o
 .debug_loc     0x000000000000b139      0x2fb ./core.o
 .debug_loc     0x000000000000b434       0xd6 ./STM32_CLKO.o
 .debug_loc     0x000000000000b50a      0x271 ./STM32_GPIO.o
 .debug_loc     0x000000000000b77b      0xc11 ./STM32_USBD.o
 .debug_loc     0x000000000000c38c      0x7ea ./STM32_SPI.o
 .debug_loc     0x000000000000cb76      0x2c9 ./STM32_TIM.o
 .debug_loc     0x000000000000ce3f      0x457 ./STM32_EINT.o
 .debug_loc     0x000000000000d296      0x386 ./STM32_ADC.o
 .debug_loc     0x000000000000d61c      0x60a ./STM32_USART.o
 .debug_loc     0x000000000000dc26      0xeb7 ./STM32_EBI.o
 .debug_loc     0x000000000000eadd      0x73c ./STM32_FLASH.o
 .debug_loc     0x000000000000f219      0x5d9 ./STM32_SDIO.o
 .debug_loc     0x000000000000f7f2      0x1c8 ./usart_stream.o
 .debug_loc     0x000000000000f9ba      0x102 ./stream.o
 .debug_loc     0x000000000000fabc     0x258e ./vsf_usbd.o
 .debug_loc     0x000000000001204a      0x72b ./vsfusbd_CDC.o
 .debug_loc     0x0000000000012775      0x6ce ./vsfusbd_CDCACM.o
 .debug_loc     0x0000000000012e43      0x58d ./buffer.o
 .debug_loc     0x00000000000133d0      0x77c ./USB_TO_XXX.o
 .debug_loc     0x0000000000013b4c      0x19f ./USB_TO_CLKO.o
 .debug_loc     0x0000000000013ceb      0x238 ./USB_TO_SPI.o
 .debug_loc     0x0000000000013f23      0x14e ./USB_TO_IIC.o
 .debug_loc     0x0000000000014071      0x206 ./USB_TO_GPIO.o
 .debug_loc     0x0000000000014277      0x24a ./USB_TO_PWM.o
 .debug_loc     0x00000000000144c1      0x271 ./USB_TO_ADC.o
 .debug_loc     0x0000000000014732       0xe0 ./USB_TO_POWER.o
 .debug_loc     0x0000000000014812      0x155 ./USB_TO_C2.o
 .debug_loc     0x0000000000014967      0x1d1 ./USB_TO_ISSP.o
 .debug_loc     0x0000000000014b38      0x137 ./USB_TO_LPCICP.o
 .debug_loc     0x0000000000014c6f      0x39e ./USB_TO_MSP430_JTAG.o
 .debug_loc     0x000000000001500d      0x20b ./USB_TO_JTAG_HL.o
 .debug_loc     0x0000000000015218      0x1cb ./USB_TO_SWD.o
 .debug_loc     0x00000000000153e3      0x257 ./USB_TO_JTAG_LL.o
 .debug_loc     0x000000000001563a      0x2b2 ./USB_TO_SWIM.o
 .debug_loc     0x00000000000158ec      0x157 ./USB_TO_JTAG_RAW.o
 .debug_loc     0x0000000000015a43      0x135 ./USB_TO_BDM.o
 .debug_loc     0x0000000000015b78      0x26b ./USB_TO_DUSI.o
 .debug_loc     0x0000000000015de3      0x423 ./USB_TO_MICROWIRE.o
 .debug_loc     0x0000000000016206      0x238 ./CommandProcessor.o
 .debug_loc     0x000000000001643e       0x58 /usr/lib/gcc/arm-none-eabi/7.3.1/../../../arm-none-eabi/lib/libc.a(lib_a-malloc.o)
 .debug_loc     0x0000000000016496      0xc82 /usr/lib/gcc/arm-none-eabi/7.3.1/../../../arm-none-eabi/lib/libc.a(lib_a-mallocr.o)
 .debug_loc     0x0000000000017118       0x4d /usr/lib/gcc/arm-none-eabi/7.3.1/../../../arm-none-eabi/lib/libc.a(lib_a-sbrkr.o)
 .debug_loc     0x0000000000017165      0x4b2 /usr/lib/gcc/arm-none-eabi/7.3.1/../../../arm-none-eabi/lib/libc.a(lib_a-freer.o)
 .debug_loc     0x0000000000017617      0x136 /usr/lib/gcc/arm-none-eabi/7.3.1/../../../arm-none-eabi/lib/libc.a(lib_a-reent.o)

.debug_macinfo
 *(.debug_macinfo)

.debug_weaknames
 *(.debug_weaknames)

.debug_funcnames
 *(.debug_funcnames)

.debug_typenames
 *(.debug_typenames)

.debug_varnames
 *(.debug_varnames)
OUTPUT(Versaloon_GCC-BluePill-0x0.elf elf32-littlearm)

.debug_ranges   0x0000000000000000      0x7f8
 .debug_ranges  0x0000000000000000       0x20 ./startup_stm32f10x_md.o
 .debug_ranges  0x0000000000000020       0x10 ./core_cm3.o
 .debug_ranges  0x0000000000000030       0x38 ./stm32f10x_tim.o
 .debug_ranges  0x0000000000000068      0x108 ./usb_regs.o
 .debug_ranges  0x0000000000000170       0x10 ./main.o
 .debug_ranges  0x0000000000000180       0x18 ./usb_protocol_Versaloon.o
 .debug_ranges  0x0000000000000198       0x48 ./SPI.o
 .debug_ranges  0x00000000000001e0       0x80 ./JTAG_TAP.o
 .debug_ranges  0x0000000000000260       0x18 ./SWD.o
 .debug_ranges  0x0000000000000278       0xf8 ./SWIM.o
 .debug_ranges  0x0000000000000370       0x90 ./MicroWire.o
 .debug_ranges  0x0000000000000400       0x40 ./IIC.o
 .debug_ranges  0x0000000000000440       0x18 ./ISSP.o
 .debug_ranges  0x0000000000000458       0x18 ./LPC_ICP.o
 .debug_ranges  0x0000000000000470       0xb8 ./MSP430_JTAG.o
 .debug_ranges  0x0000000000000528       0x90 ./BDM.o
 .debug_ranges  0x00000000000005b8       0x80 ./core.o
 .debug_ranges  0x0000000000000638       0x20 ./STM32_SPI.o
 .debug_ranges  0x0000000000000658      0x150 ./vsf_usbd.o
 .debug_ranges  0x00000000000007a8       0x18 ./CommandProcessor.o
 .debug_ranges  0x00000000000007c0       0x38 /usr/lib/gcc/arm-none-eabi/7.3.1/../../../arm-none-eabi/lib/libc.a(lib_a-mallocr.o)

Cross Reference Table

Symbol                                            File
ADC1_2_IRQHandler                                 ./startup_stm32f10x_md.o
AHBPrescTable                                     ./system_stm32f10x.o
BDM_Inited                                        ./BDM.o
BusFault_Handler                                  ./startup_stm32f10x_md.o
ByteSwap                                          ./usb_regs.o
C2_Fini                                           ./C2.o
C2_Init                                           ./C2.o
C2_ReadAddr                                       ./C2.o
C2_ReadData                                       ./C2.o
C2_WriteAddr                                      ./C2.o
C2_WriteData                                      ./C2.o
CAN1_RX1_IRQHandler                               ./startup_stm32f10x_md.o
CAN1_SCE_IRQHandler                               ./startup_stm32f10x_md.o
CTR_HP                                            ./STM32_USBD.o
CTR_LP                                            ./STM32_USBD.o
ClearDTOG_RX                                      ./usb_regs.o
                                                  ./STM32_USBD.o
ClearDTOG_TX                                      ./usb_regs.o
                                                  ./STM32_USBD.o
ClearEPDoubleBuff                                 ./usb_regs.o
                                                  ./STM32_USBD.o
ClearEP_CTR_RX                                    ./usb_regs.o
ClearEP_CTR_TX                                    ./usb_regs.o
ClearEP_KIND                                      ./usb_regs.o
Clear_Status_Out                                  ./usb_regs.o
                                                  ./STM32_USBD.o
DMA1_Channel1_IRQHandler                          ./startup_stm32f10x_md.o
DMA1_Channel2_IRQHandler                          ./startup_stm32f10x_md.o
DMA1_Channel3_IRQHandler                          ./startup_stm32f10x_md.o
DMA1_Channel4_IRQHandler                          ./startup_stm32f10x_md.o
DMA1_Channel5_IRQHandler                          ./startup_stm32f10x_md.o
DMA1_Channel6_IRQHandler                          ./startup_stm32f10x_md.o
DMA1_Channel7_IRQHandler                          ./startup_stm32f10x_md.o
DMA_ClearFlag                                     ./stm32f10x_dma.o
DMA_ClearITPendingBit                             ./stm32f10x_dma.o
DMA_Cmd                                           ./stm32f10x_dma.o
                                                  ./PWM.o
                                                  ./BDM.o
                                                  ./SWIM.o
DMA_DeInit                                        ./stm32f10x_dma.o
                                                  ./PWM.o
                                                  ./BDM.o
                                                  ./SWIM.o
                                                  ./JTAG_TAP.o
DMA_GetCurrDataCounter                            ./stm32f10x_dma.o
DMA_GetFlagStatus                                 ./stm32f10x_dma.o
DMA_GetITStatus                                   ./stm32f10x_dma.o
DMA_ITConfig                                      ./stm32f10x_dma.o
DMA_Init                                          ./stm32f10x_dma.o
                                                  ./PWM.o
                                                  ./BDM.o
                                                  ./SWIM.o
                                                  ./JTAG_TAP.o
DMA_StructInit                                    ./stm32f10x_dma.o
                                                  ./PWM.o
                                                  ./BDM.o
                                                  ./SWIM.o
DebugMon_Handler                                  ./startup_stm32f10x_md.o
Default_Handler                                   ./startup_stm32f10x_md.o
EMIIC_USBTOXXX_DeInit                             ./IIC.o
EMIIC_USBTOXXX_Init                               ./IIC.o
EMIIC_USBTOXXX_Receive                            ./IIC.o
EMIIC_USBTOXXX_Send                               ./IIC.o
EMIIC_USBTOXXX_SetParameter                       ./IIC.o
EXTI0_IRQHandler                                  ./STM32_EINT.o
                                                  ./startup_stm32f10x_md.o
EXTI15_10_IRQHandler                              ./STM32_EINT.o
                                                  ./startup_stm32f10x_md.o
EXTI1_IRQHandler                                  ./STM32_EINT.o
                                                  ./startup_stm32f10x_md.o
EXTI2_IRQHandler                                  ./STM32_EINT.o
                                                  ./startup_stm32f10x_md.o
EXTI3_IRQHandler                                  ./STM32_EINT.o
                                                  ./startup_stm32f10x_md.o
EXTI4_IRQHandler                                  ./STM32_EINT.o
                                                  ./startup_stm32f10x_md.o
EXTI9_5_IRQHandler                                ./STM32_EINT.o
                                                  ./startup_stm32f10x_md.o
FLASH_IRQHandler                                  ./startup_stm32f10x_md.o
FreeUserBuffer                                    ./usb_regs.o
                                                  ./STM32_USBD.o
GPIO_AFIODeInit                                   ./stm32f10x_gpio.o
GPIO_DeInit                                       ./stm32f10x_gpio.o
GPIO_ETH_MediaInterfaceConfig                     ./stm32f10x_gpio.o
GPIO_EXTILineConfig                               ./stm32f10x_gpio.o
GPIO_EventOutputCmd                               ./stm32f10x_gpio.o
GPIO_EventOutputConfig                            ./stm32f10x_gpio.o
GPIO_Init                                         ./stm32f10x_gpio.o
GPIO_PinLockConfig                                ./stm32f10x_gpio.o
GPIO_PinRemapConfig                               ./stm32f10x_gpio.o
                                                  ./PWM.o
                                                  ./BDM.o
                                                  ./SWIM.o
GPIO_ReadInputData                                ./stm32f10x_gpio.o
GPIO_ReadInputDataBit                             ./stm32f10x_gpio.o
GPIO_ReadOutputData                               ./stm32f10x_gpio.o
GPIO_ReadOutputDataBit                            ./stm32f10x_gpio.o
GPIO_ResetBits                                    ./stm32f10x_gpio.o
GPIO_SetBits                                      ./stm32f10x_gpio.o
GPIO_SetMode                                      ./app_interfaces.o
                                                  ./PWM.o
                                                  ./BDM.o
                                                  ./MSP430_JTAG.o
                                                  ./LPC_ICP.o
                                                  ./ISSP.o
                                                  ./C2.o
                                                  ./IIC.o
                                                  ./MicroWire.o
                                                  ./SWIM.o
                                                  ./SWD.o
                                                  ./JTAG_TAP.o
                                                  ./SPI.o
                                                  ./GPIO.o
GPIO_StructInit                                   ./stm32f10x_gpio.o
GPIO_Write                                        ./stm32f10x_gpio.o
GPIO_WriteBit                                     ./stm32f10x_gpio.o
GetBTABLE                                         ./usb_regs.o
GetCNTR                                           ./usb_regs.o
GetDADDR                                          ./usb_regs.o
GetENDPOINT                                       ./usb_regs.o
                                                  ./STM32_USBD.o
GetEPAddress                                      ./usb_regs.o
GetEPDblBuf0Addr                                  ./usb_regs.o
                                                  ./STM32_USBD.o
GetEPDblBuf0Count                                 ./usb_regs.o
                                                  ./STM32_USBD.o
GetEPDblBuf1Addr                                  ./usb_regs.o
                                                  ./STM32_USBD.o
GetEPDblBuf1Count                                 ./usb_regs.o
                                                  ./STM32_USBD.o
GetEPDblBufDir                                    ./usb_regs.o
GetEPRxAddr                                       ./usb_regs.o
                                                  ./STM32_USBD.o
GetEPRxCount                                      ./usb_regs.o
                                                  ./STM32_USBD.o
GetEPRxStatus                                     ./usb_regs.o
                                                  ./STM32_USBD.o
GetEPTxAddr                                       ./usb_regs.o
                                                  ./STM32_USBD.o
GetEPTxCount                                      ./usb_regs.o
GetEPTxStatus                                     ./usb_regs.o
                                                  ./STM32_USBD.o
GetEPType                                         ./usb_regs.o
GetFNR                                            ./usb_regs.o
                                                  ./STM32_USBD.o
GetISTR                                           ./usb_regs.o
GetRxStallStatus                                  ./usb_regs.o
GetTxStallStatus                                  ./usb_regs.o
HardFault_Handler                                 ./startup_stm32f10x_md.o
I2C1_ER_IRQHandler                                ./startup_stm32f10x_md.o
I2C1_EV_IRQHandler                                ./startup_stm32f10x_md.o
I2C2_ER_IRQHandler                                ./startup_stm32f10x_md.o
I2C2_EV_IRQHandler                                ./startup_stm32f10x_md.o
I2S_Cmd                                           ./stm32f10x_spi.o
I2S_Init                                          ./stm32f10x_spi.o
I2S_StructInit                                    ./stm32f10x_spi.o
IIC_Delay                                         ./IIC.o
ISSP_Vector                                       ./ISSP.o
ISSP_Vector_0s                                    ./ISSP.o
JTAG_TAP_1s                                       ./JTAG_TAP.o
JTAG_TAP_Operate_Asyn                             ./JTAG_TAP.o
JTAG_TAP_Operate_RAW                              ./JTAG_TAP.o
JTAG_TAP_TMS_scrap                                ./JTAG_TAP.o
JTAG_TAP_TMS_scraplen                             ./JTAG_TAP.o
MemManage_Handler                                 ./startup_stm32f10x_md.o
NMI_Handler                                       ./startup_stm32f10x_md.o
NVIC_Init                                         ./misc.o
                                                  ./usb_protocol_Versaloon.o
NVIC_PriorityGroupConfig                          ./misc.o
                                                  ./usb_protocol_Versaloon.o
NVIC_SetVectorTable                               ./misc.o
NVIC_SystemLPConfig                               ./misc.o
PMAToUserBufferCopy                               ./usb_mem.o
                                                  ./STM32_USBD.o
PVD_IRQHandler                                    ./startup_stm32f10x_md.o
PWREXT_Acquire                                    ./PowerExt.o
                                                  ./LPC_ICP.o
                                                  ./ISSP.o
PWREXT_ForceRelease                               ./PowerExt.o
PWREXT_GetState                                   ./PowerExt.o
PWREXT_PowerState                                 ./PowerExt.o
PWREXT_Release                                    ./PowerExt.o
                                                  ./LPC_ICP.o
                                                  ./ISSP.o
PendSV_Handler                                    ./startup_stm32f10x_md.o
ProcessCommand                                    ./CommandProcessor.o
                                                  ./vsfusbd_Versaloon.o
RCC_ADCCLKConfig                                  ./stm32f10x_rcc.o
RCC_AHBPeriphClockCmd                             ./stm32f10x_rcc.o
                                                  ./PWM.o
                                                  ./BDM.o
                                                  ./SWIM.o
                                                  ./JTAG_TAP.o
RCC_APB1PeriphClockCmd                            ./stm32f10x_rcc.o
                                                  ./core.o
                                                  ./PWM.o
                                                  ./BDM.o
                                                  ./SWIM.o
RCC_APB1PeriphResetCmd                            ./stm32f10x_rcc.o
                                                  ./stm32f10x_tim.o
                                                  ./stm32f10x_spi.o
RCC_APB2PeriphClockCmd                            ./stm32f10x_rcc.o
                                                  ./core.o
RCC_APB2PeriphResetCmd                            ./stm32f10x_rcc.o
                                                  ./stm32f10x_tim.o
                                                  ./stm32f10x_spi.o
                                                  ./stm32f10x_gpio.o
RCC_AdjustHSICalibrationValue                     ./stm32f10x_rcc.o
RCC_BackupResetCmd                                ./stm32f10x_rcc.o
RCC_ClearFlag                                     ./stm32f10x_rcc.o
RCC_ClearITPendingBit                             ./stm32f10x_rcc.o
RCC_ClockSecuritySystemCmd                        ./stm32f10x_rcc.o
RCC_DeInit                                        ./stm32f10x_rcc.o
                                                  ./core.o
RCC_GetClocksFreq                                 ./stm32f10x_rcc.o
                                                  ./stm32f10x_spi.o
RCC_GetFlagStatus                                 ./stm32f10x_rcc.o
RCC_GetITStatus                                   ./stm32f10x_rcc.o
RCC_GetSYSCLKSource                               ./stm32f10x_rcc.o
RCC_HCLKConfig                                    ./stm32f10x_rcc.o
RCC_HSEConfig                                     ./stm32f10x_rcc.o
RCC_HSICmd                                        ./stm32f10x_rcc.o
RCC_IRQHandler                                    ./startup_stm32f10x_md.o
RCC_ITConfig                                      ./stm32f10x_rcc.o
RCC_LSEConfig                                     ./stm32f10x_rcc.o
RCC_LSICmd                                        ./stm32f10x_rcc.o
RCC_MCOConfig                                     ./stm32f10x_rcc.o
RCC_PCLK1Config                                   ./stm32f10x_rcc.o
RCC_PCLK2Config                                   ./stm32f10x_rcc.o
RCC_PLLCmd                                        ./stm32f10x_rcc.o
RCC_PLLConfig                                     ./stm32f10x_rcc.o
RCC_RTCCLKCmd                                     ./stm32f10x_rcc.o
RCC_RTCCLKConfig                                  ./stm32f10x_rcc.o
RCC_SYSCLKConfig                                  ./stm32f10x_rcc.o
RCC_USBCLKConfig                                  ./stm32f10x_rcc.o
RCC_WaitForHSEStartUp                             ./stm32f10x_rcc.o
RTCAlarm_IRQHandler                               ./startup_stm32f10x_md.o
RTC_IRQHandler                                    ./startup_stm32f10x_md.o
Reset_Handler                                     ./startup_stm32f10x_md.o
SCSI_GetErrorCode                                 ./SCSI.o
                                                  ./vsfusbd_MSC_BOT.o
SCSI_Handle                                       ./SCSI.o
                                                  ./vsfusbd_MSC_BOT.o
SCSI_IO                                           ./SCSI.o
                                                  ./vsfusbd_MSC_BOT.o
SCSI_Init                                         ./SCSI.o
                                                  ./vsfusbd_MSC_BOT.o
SCSI_Poll                                         ./SCSI.o
                                                  ./vsfusbd_MSC_BOT.o
SPI1_IRQHandler                                   ./startup_stm32f10x_md.o
SPI2_IRQHandler                                   ./startup_stm32f10x_md.o
SPI_BiDirectionalLineConfig                       ./stm32f10x_spi.o
SPI_CalculateCRC                                  ./stm32f10x_spi.o
SPI_Cmd                                           ./stm32f10x_spi.o
                                                  ./JTAG_TAP.o
SPI_DataSizeConfig                                ./stm32f10x_spi.o
SPI_GetCRC                                        ./stm32f10x_spi.o
SPI_GetCRCPolynomial                              ./stm32f10x_spi.o
SPI_I2S_ClearFlag                                 ./stm32f10x_spi.o
SPI_I2S_ClearITPendingBit                         ./stm32f10x_spi.o
SPI_I2S_DMACmd                                    ./stm32f10x_spi.o
                                                  ./JTAG_TAP.o
SPI_I2S_DeInit                                    ./stm32f10x_spi.o
                                                  ./STM32_SPI.o
SPI_I2S_GetFlagStatus                             ./stm32f10x_spi.o
SPI_I2S_GetITStatus                               ./stm32f10x_spi.o
SPI_I2S_ITConfig                                  ./stm32f10x_spi.o
SPI_I2S_ReceiveData                               ./stm32f10x_spi.o
SPI_I2S_SendData                                  ./stm32f10x_spi.o
SPI_Init                                          ./stm32f10x_spi.o
SPI_NSSInternalSoftwareConfig                     ./stm32f10x_spi.o
SPI_SSOutputCmd                                   ./stm32f10x_spi.o
SPI_StructInit                                    ./stm32f10x_spi.o
SPI_TransmitCRC                                   ./stm32f10x_spi.o
SVC_Handler                                       ./startup_stm32f10x_md.o
SWD_Delay                                         ./SWD.o
SWD_Fini                                          ./SWD.o
SWD_Init                                          ./SWD.o
SWD_Retry                                         ./SWD.o
SWD_SeqIn                                         ./SWD.o
SWD_SeqIn_Delay                                   ./SWD.o
SWD_SeqIn_NoDelay                                 ./SWD.o
SWD_SeqOut                                        ./SWD.o
SWD_SeqOut_Delay                                  ./SWD.o
SWD_SeqOut_NoDelay                                ./SWD.o
SWD_SetDelay                                      ./SWD.o
SWD_SetRetryCount                                 ./SWD.o
SWD_SetTurnaround                                 ./SWD.o
SWD_StopClock                                     ./SWD.o
SWD_Transaction                                   ./SWD.o
SWD_Trn                                           ./SWD.o
SetBTABLE                                         ./usb_regs.o
                                                  ./STM32_USBD.o
SetCNTR                                           ./usb_regs.o
                                                  ./STM32_USBD.o
SetDADDR                                          ./usb_regs.o
                                                  ./STM32_USBD.o
SetDouBleBuffEPStall                              ./usb_regs.o
SetENDPOINT                                       ./usb_regs.o
SetEPAddress                                      ./usb_regs.o
                                                  ./STM32_USBD.o
SetEPCountRxReg                                   ./usb_regs.o
SetEPDblBuf0Addr                                  ./usb_regs.o
SetEPDblBuf0Count                                 ./usb_regs.o
                                                  ./STM32_USBD.o
SetEPDblBuf1Addr                                  ./usb_regs.o
SetEPDblBuf1Count                                 ./usb_regs.o
                                                  ./STM32_USBD.o
SetEPDblBuffAddr                                  ./usb_regs.o
                                                  ./STM32_USBD.o
SetEPDblBuffCount                                 ./usb_regs.o
                                                  ./STM32_USBD.o
SetEPDoubleBuff                                   ./usb_regs.o
                                                  ./STM32_USBD.o
SetEPRxAddr                                       ./usb_regs.o
                                                  ./STM32_USBD.o
SetEPRxCount                                      ./usb_regs.o
                                                  ./STM32_USBD.o
SetEPRxStatus                                     ./usb_regs.o
                                                  ./STM32_USBD.o
SetEPRxValid                                      ./usb_regs.o
SetEPTxAddr                                       ./usb_regs.o
                                                  ./STM32_USBD.o
SetEPTxCount                                      ./usb_regs.o
                                                  ./STM32_USBD.o
SetEPTxStatus                                     ./usb_regs.o
                                                  ./STM32_USBD.o
SetEPTxValid                                      ./usb_regs.o
SetEPType                                         ./usb_regs.o
                                                  ./STM32_USBD.o
SetEP_KIND                                        ./usb_regs.o
SetISTR                                           ./usb_regs.o
                                                  ./STM32_USBD.o
Set_Status_Out                                    ./usb_regs.o
SysTick_CLKSourceConfig                           ./misc.o
SysTick_Handler                                   ./startup_stm32f10x_md.o
SystemCoreClock                                   ./system_stm32f10x.o
SystemCoreClockUpdate                             ./system_stm32f10x.o
SystemInit                                        ./system_stm32f10x.o
TAMPER_IRQHandler                                 ./startup_stm32f10x_md.o
TIM1_BRK_IRQHandler                               ./startup_stm32f10x_md.o
TIM1_CC_IRQHandler                                ./startup_stm32f10x_md.o
TIM1_TRG_COM_IRQHandler                           ./startup_stm32f10x_md.o
TIM1_UP_IRQHandler                                ./startup_stm32f10x_md.o
TIM2_IRQHandler                                   ./startup_stm32f10x_md.o
TIM3_IRQHandler                                   ./startup_stm32f10x_md.o
TIM4_IRQHandler                                   ./startup_stm32f10x_md.o
TIM_ARRPreloadConfig                              ./stm32f10x_tim.o
                                                  ./PWM.o
                                                  ./BDM.o
                                                  ./SWIM.o
TIM_BDTRConfig                                    ./stm32f10x_tim.o
TIM_BDTRStructInit                                ./stm32f10x_tim.o
TIM_CCPreloadControl                              ./stm32f10x_tim.o
TIM_CCxCmd                                        ./stm32f10x_tim.o
TIM_CCxNCmd                                       ./stm32f10x_tim.o
TIM_ClearFlag                                     ./stm32f10x_tim.o
TIM_ClearITPendingBit                             ./stm32f10x_tim.o
TIM_ClearOC1Ref                                   ./stm32f10x_tim.o
TIM_ClearOC2Ref                                   ./stm32f10x_tim.o
TIM_ClearOC3Ref                                   ./stm32f10x_tim.o
TIM_ClearOC4Ref                                   ./stm32f10x_tim.o
TIM_Cmd                                           ./stm32f10x_tim.o
                                                  ./core.o
                                                  ./PWM.o
                                                  ./BDM.o
                                                  ./SWIM.o
TIM_CounterModeConfig                             ./stm32f10x_tim.o
TIM_CtrlPWMOutputs                                ./stm32f10x_tim.o
                                                  ./PWM.o
                                                  ./BDM.o
                                                  ./SWIM.o
TIM_DMACmd                                        ./stm32f10x_tim.o
                                                  ./PWM.o
                                                  ./BDM.o
                                                  ./SWIM.o
TIM_DMAConfig                                     ./stm32f10x_tim.o
TIM_DeInit                                        ./stm32f10x_tim.o
                                                  ./STM32_TIM.o
                                                  ./core.o
                                                  ./PWM.o
                                                  ./BDM.o
                                                  ./SWIM.o
TIM_ETRClockMode1Config                           ./stm32f10x_tim.o
TIM_ETRClockMode2Config                           ./stm32f10x_tim.o
TIM_ETRConfig                                     ./stm32f10x_tim.o
TIM_EncoderInterfaceConfig                        ./stm32f10x_tim.o
TIM_ForcedOC1Config                               ./stm32f10x_tim.o
TIM_ForcedOC2Config                               ./stm32f10x_tim.o
TIM_ForcedOC3Config                               ./stm32f10x_tim.o
TIM_ForcedOC4Config                               ./stm32f10x_tim.o
TIM_GenerateEvent                                 ./stm32f10x_tim.o
TIM_GetCapture1                                   ./stm32f10x_tim.o
TIM_GetCapture2                                   ./stm32f10x_tim.o
TIM_GetCapture3                                   ./stm32f10x_tim.o
TIM_GetCapture4                                   ./stm32f10x_tim.o
TIM_GetCounter                                    ./stm32f10x_tim.o
TIM_GetFlagStatus                                 ./stm32f10x_tim.o
TIM_GetITStatus                                   ./stm32f10x_tim.o
TIM_GetPrescaler                                  ./stm32f10x_tim.o
TIM_ICInit                                        ./stm32f10x_tim.o
TIM_ICStructInit                                  ./stm32f10x_tim.o
                                                  ./PWM.o
                                                  ./BDM.o
                                                  ./SWIM.o
TIM_ITConfig                                      ./stm32f10x_tim.o
TIM_ITRxExternalClockConfig                       ./stm32f10x_tim.o
                                                  ./core.o
TIM_InternalClockConfig                           ./stm32f10x_tim.o
TIM_OC1FastConfig                                 ./stm32f10x_tim.o
TIM_OC1Init                                       ./stm32f10x_tim.o
                                                  ./PWM.o
                                                  ./BDM.o
                                                  ./SWIM.o
TIM_OC1NPolarityConfig                            ./stm32f10x_tim.o
TIM_OC1PolarityConfig                             ./stm32f10x_tim.o
TIM_OC1PreloadConfig                              ./stm32f10x_tim.o
                                                  ./PWM.o
                                                  ./BDM.o
                                                  ./SWIM.o
TIM_OC2FastConfig                                 ./stm32f10x_tim.o
TIM_OC2Init                                       ./stm32f10x_tim.o
TIM_OC2NPolarityConfig                            ./stm32f10x_tim.o
TIM_OC2PolarityConfig                             ./stm32f10x_tim.o
TIM_OC2PreloadConfig                              ./stm32f10x_tim.o
TIM_OC3FastConfig                                 ./stm32f10x_tim.o
TIM_OC3Init                                       ./stm32f10x_tim.o
TIM_OC3NPolarityConfig                            ./stm32f10x_tim.o
TIM_OC3PolarityConfig                             ./stm32f10x_tim.o
TIM_OC3PreloadConfig                              ./stm32f10x_tim.o
TIM_OC4FastConfig                                 ./stm32f10x_tim.o
TIM_OC4Init                                       ./stm32f10x_tim.o
TIM_OC4PolarityConfig                             ./stm32f10x_tim.o
TIM_OC4PreloadConfig                              ./stm32f10x_tim.o
TIM_OCStructInit                                  ./stm32f10x_tim.o
                                                  ./PWM.o
                                                  ./BDM.o
                                                  ./SWIM.o
TIM_PWMIConfig                                    ./stm32f10x_tim.o
                                                  ./PWM.o
                                                  ./BDM.o
                                                  ./SWIM.o
TIM_PrescalerConfig                               ./stm32f10x_tim.o
                                                  ./PWM.o
                                                  ./BDM.o
                                                  ./SWIM.o
TIM_SelectCCDMA                                   ./stm32f10x_tim.o
TIM_SelectCOM                                     ./stm32f10x_tim.o
TIM_SelectHallSensor                              ./stm32f10x_tim.o
TIM_SelectInputTrigger                            ./stm32f10x_tim.o
                                                  ./PWM.o
                                                  ./BDM.o
                                                  ./SWIM.o
TIM_SelectMasterSlaveMode                         ./stm32f10x_tim.o
                                                  ./core.o
                                                  ./PWM.o
                                                  ./BDM.o
                                                  ./SWIM.o
TIM_SelectOCxM                                    ./stm32f10x_tim.o
TIM_SelectOnePulseMode                            ./stm32f10x_tim.o
TIM_SelectOutputTrigger                           ./stm32f10x_tim.o
                                                  ./core.o
TIM_SelectSlaveMode                               ./stm32f10x_tim.o
                                                  ./core.o
                                                  ./PWM.o
                                                  ./BDM.o
                                                  ./SWIM.o
TIM_SetAutoreload                                 ./stm32f10x_tim.o
TIM_SetClockDivision                              ./stm32f10x_tim.o
TIM_SetCompare1                                   ./stm32f10x_tim.o
TIM_SetCompare2                                   ./stm32f10x_tim.o
TIM_SetCompare3                                   ./stm32f10x_tim.o
TIM_SetCompare4                                   ./stm32f10x_tim.o
TIM_SetCounter                                    ./stm32f10x_tim.o
TIM_SetIC1Prescaler                               ./stm32f10x_tim.o
TIM_SetIC2Prescaler                               ./stm32f10x_tim.o
TIM_SetIC3Prescaler                               ./stm32f10x_tim.o
TIM_SetIC4Prescaler                               ./stm32f10x_tim.o
TIM_TIxExternalClockConfig                        ./stm32f10x_tim.o
TIM_TimeBaseInit                                  ./stm32f10x_tim.o
                                                  ./core.o
                                                  ./PWM.o
                                                  ./BDM.o
                                                  ./SWIM.o
TIM_TimeBaseStructInit                            ./stm32f10x_tim.o
                                                  ./core.o
                                                  ./PWM.o
                                                  ./BDM.o
                                                  ./SWIM.o
TIM_UpdateDisableConfig                           ./stm32f10x_tim.o
TIM_UpdateRequestConfig                           ./stm32f10x_tim.o
ToWord                                            ./usb_regs.o
ToggleDTOG_RX                                     ./usb_regs.o
                                                  ./STM32_USBD.o
ToggleDTOG_TX                                     ./usb_regs.o
                                                  ./STM32_USBD.o
USART1_IRQHandler                                 ./STM32_USART.o
                                                  ./startup_stm32f10x_md.o
USART2_IRQHandler                                 ./startup_stm32f10x_md.o
USART3_IRQHandler                                 ./startup_stm32f10x_md.o
USBWakeUp_IRQHandler                              ./STM32_USBD.o
                                                  ./startup_stm32f10x_md.o
USB_HP_CAN1_TX_IRQHandler                         ./STM32_USBD.o
                                                  ./startup_stm32f10x_md.o
USB_Istr                                          ./STM32_USBD.o
USB_LP_CAN1_RX0_IRQHandler                        ./STM32_USBD.o
                                                  ./startup_stm32f10x_md.o
USB_TO_ADC_ProcessCmd                             ./USB_TO_ADC.o
                                                  ./USB_TO_XXX.o
USB_TO_BDM_ProcessCmd                             ./USB_TO_BDM.o
                                                  ./USB_TO_XXX.o
USB_TO_C2_ProcessCmd                              ./USB_TO_C2.o
                                                  ./USB_TO_XXX.o
USB_TO_CLKO_ProcessCmd                            ./USB_TO_CLKO.o
                                                  ./USB_TO_XXX.o
USB_TO_DUSI_ProcessCmd                            ./USB_TO_DUSI.o
                                                  ./USB_TO_XXX.o
USB_TO_GPIO_ProcessCmd                            ./USB_TO_GPIO.o
                                                  ./USB_TO_XXX.o
USB_TO_IIC_ProcessCmd                             ./USB_TO_IIC.o
                                                  ./USB_TO_XXX.o
USB_TO_ISSP_ProcessCmd                            ./USB_TO_ISSP.o
                                                  ./USB_TO_XXX.o
USB_TO_JTAG_HL_ProcessCmd                         ./USB_TO_JTAG_HL.o
                                                  ./USB_TO_XXX.o
USB_TO_JTAG_LL_ProcessCmd                         ./USB_TO_JTAG_LL.o
                                                  ./USB_TO_XXX.o
USB_TO_JTAG_RAW_ProcessCmd                        ./USB_TO_JTAG_RAW.o
                                                  ./USB_TO_XXX.o
USB_TO_LPCICP_ProcessCmd                          ./USB_TO_LPCICP.o
                                                  ./USB_TO_XXX.o
USB_TO_MICROWIRE_ProcessCmd                       ./USB_TO_MICROWIRE.o
                                                  ./USB_TO_XXX.o
USB_TO_MSP430_JTAG_ProcessCmd                     ./USB_TO_MSP430_JTAG.o
                                                  ./USB_TO_XXX.o
USB_TO_POLL_Context                               ./USB_TO_XXX.o
USB_TO_POLL_Index                                 ./USB_TO_XXX.o
                                                  ./CommandProcessor.o
USB_TO_POWER_ProcessCmd                           ./USB_TO_POWER.o
                                                  ./USB_TO_XXX.o
USB_TO_PWM_ProcessCmd                             ./USB_TO_PWM.o
                                                  ./USB_TO_XXX.o
USB_TO_SPI_ProcessCmd                             ./USB_TO_SPI.o
                                                  ./USB_TO_XXX.o
USB_TO_SWD_ProcessCmd                             ./USB_TO_SWD.o
                                                  ./USB_TO_XXX.o
USB_TO_SWIM_ProcessCmd                            ./USB_TO_SWIM.o
                                                  ./USB_TO_XXX.o
USB_TO_XXX_Init                                   ./USB_TO_XXX.o
                                                  ./vsfusbd_Versaloon.o
USB_TO_XXX_ProcessCmd                             ./USB_TO_XXX.o
                                                  ./CommandProcessor.o
UsageFault_Handler                                ./startup_stm32f10x_md.o
UserToPMABufferCopy                               ./usb_mem.o
                                                  ./STM32_USBD.o
VOM_set_line_coding                               ./usb_protocol_Versaloon.o
Versaloon_CDCACM_param                            ./usb_protocol_Versaloon.o
Versaloon_Ver                                     ./CommandProcessor.o
Versaloon_param                                   ./usb_protocol_Versaloon.o
WWDG_IRQHandler                                   ./startup_stm32f10x_md.o
_ITM_deregisterTMCloneTable                       /usr/lib/gcc/arm-none-eabi/7.3.1/crtbegin.o
_ITM_registerTMCloneTable                         /usr/lib/gcc/arm-none-eabi/7.3.1/crtbegin.o
__LDREXB                                          ./core_cm3.o
__LDREXH                                          ./core_cm3.o
__LDREXW                                          ./core_cm3.o
__RBIT                                            ./core_cm3.o
__REV                                             ./core_cm3.o
__REV16                                           ./core_cm3.o
__REVSH                                           ./core_cm3.o
__STREXB                                          ./core_cm3.o
__STREXH                                          ./core_cm3.o
__STREXW                                          ./core_cm3.o
__TMC_END__                                       /usr/lib/gcc/arm-none-eabi/7.3.1/crtend.o
                                                  /usr/lib/gcc/arm-none-eabi/7.3.1/crtbegin.o
__aeabi_idiv0                                     /usr/lib/gcc/arm-none-eabi/7.3.1/libgcc.a(_dvmd_tls.o)
__aeabi_ldiv0                                     /usr/lib/gcc/arm-none-eabi/7.3.1/libgcc.a(_dvmd_tls.o)
                                                  /usr/lib/gcc/arm-none-eabi/7.3.1/libgcc.a(_aeabi_uldivmod.o)
__aeabi_uldivmod                                  /usr/lib/gcc/arm-none-eabi/7.3.1/libgcc.a(_aeabi_uldivmod.o)
                                                  ./fakefat32.o
__bss_end__                                       /usr/lib/gcc/arm-none-eabi/7.3.1/../../../arm-none-eabi/lib/crt0.o
__bss_start__                                     /usr/lib/gcc/arm-none-eabi/7.3.1/../../../arm-none-eabi/lib/crt0.o
__call_exitprocs                                  /usr/lib/gcc/arm-none-eabi/7.3.1/../../../arm-none-eabi/lib/libc.a(lib_a-__call_atexit.o)
                                                  /usr/lib/gcc/arm-none-eabi/7.3.1/../../../arm-none-eabi/lib/libc.a(lib_a-exit.o)
__clzdi2                                          /usr/lib/gcc/arm-none-eabi/7.3.1/libgcc.a(_clzdi2.o)
                                                  /usr/lib/gcc/arm-none-eabi/7.3.1/libgcc.a(_udivmoddi4.o)
__clzsi2                                          /usr/lib/gcc/arm-none-eabi/7.3.1/libgcc.a(_clzsi2.o)
                                                  /usr/lib/gcc/arm-none-eabi/7.3.1/libgcc.a(_clzdi2.o)
__deregister_frame_info                           /usr/lib/gcc/arm-none-eabi/7.3.1/crtbegin.o
__dso_handle                                      /usr/lib/gcc/arm-none-eabi/7.3.1/crtbegin.o
__fini_array_end                                  /usr/lib/gcc/arm-none-eabi/7.3.1/../../../arm-none-eabi/lib/libc.a(lib_a-fini.o)
__fini_array_start                                /usr/lib/gcc/arm-none-eabi/7.3.1/../../../arm-none-eabi/lib/libc.a(lib_a-fini.o)
__get_BASEPRI                                     ./core_cm3.o
__get_CONTROL                                     ./core_cm3.o
__get_FAULTMASK                                   ./core_cm3.o
__get_MSP                                         ./core_cm3.o
__get_PRIMASK                                     ./core_cm3.o
__get_PSP                                         ./core_cm3.o
__init_array_end                                  /usr/lib/gcc/arm-none-eabi/7.3.1/../../../arm-none-eabi/lib/libc.a(lib_a-init.o)
__init_array_start                                /usr/lib/gcc/arm-none-eabi/7.3.1/../../../arm-none-eabi/lib/libc.a(lib_a-init.o)
__libc_fini                                       /usr/lib/gcc/arm-none-eabi/7.3.1/../../../arm-none-eabi/lib/libc.a(lib_a-__call_atexit.o)
__libc_fini_array                                 /usr/lib/gcc/arm-none-eabi/7.3.1/../../../arm-none-eabi/lib/libc.a(lib_a-fini.o)
                                                  /usr/lib/gcc/arm-none-eabi/7.3.1/../../../arm-none-eabi/lib/libc.a(lib_a-__call_atexit.o)
                                                  /usr/lib/gcc/arm-none-eabi/7.3.1/../../../arm-none-eabi/lib/crt0.o
__libc_init_array                                 /usr/lib/gcc/arm-none-eabi/7.3.1/../../../arm-none-eabi/lib/libc.a(lib_a-init.o)
                                                  /usr/lib/gcc/arm-none-eabi/7.3.1/../../../arm-none-eabi/lib/crt0.o
__malloc_av_                                      /usr/lib/gcc/arm-none-eabi/7.3.1/../../../arm-none-eabi/lib/libc.a(lib_a-mallocr.o)
                                                  /usr/lib/gcc/arm-none-eabi/7.3.1/../../../arm-none-eabi/lib/libc.a(lib_a-freer.o)
__malloc_current_mallinfo                         /usr/lib/gcc/arm-none-eabi/7.3.1/../../../arm-none-eabi/lib/libc.a(lib_a-mallocr.o)
                                                  /usr/lib/gcc/arm-none-eabi/7.3.1/../../../arm-none-eabi/lib/libc.a(lib_a-freer.o)
__malloc_lock                                     /usr/lib/gcc/arm-none-eabi/7.3.1/../../../arm-none-eabi/lib/libc.a(lib_a-mlock.o)
                                                  /usr/lib/gcc/arm-none-eabi/7.3.1/../../../arm-none-eabi/lib/libc.a(lib_a-freer.o)
                                                  /usr/lib/gcc/arm-none-eabi/7.3.1/../../../arm-none-eabi/lib/libc.a(lib_a-mallocr.o)
__malloc_max_sbrked_mem                           /usr/lib/gcc/arm-none-eabi/7.3.1/../../../arm-none-eabi/lib/libc.a(lib_a-mallocr.o)
__malloc_max_total_mem                            /usr/lib/gcc/arm-none-eabi/7.3.1/../../../arm-none-eabi/lib/libc.a(lib_a-mallocr.o)
__malloc_sbrk_base                                /usr/lib/gcc/arm-none-eabi/7.3.1/../../../arm-none-eabi/lib/libc.a(lib_a-mallocr.o)
                                                  /usr/lib/gcc/arm-none-eabi/7.3.1/../../../arm-none-eabi/lib/libc.a(lib_a-freer.o)
__malloc_top_pad                                  /usr/lib/gcc/arm-none-eabi/7.3.1/../../../arm-none-eabi/lib/libc.a(lib_a-mallocr.o)
                                                  /usr/lib/gcc/arm-none-eabi/7.3.1/../../../arm-none-eabi/lib/libc.a(lib_a-freer.o)
__malloc_trim_threshold                           /usr/lib/gcc/arm-none-eabi/7.3.1/../../../arm-none-eabi/lib/libc.a(lib_a-mallocr.o)
                                                  /usr/lib/gcc/arm-none-eabi/7.3.1/../../../arm-none-eabi/lib/libc.a(lib_a-freer.o)
__malloc_unlock                                   /usr/lib/gcc/arm-none-eabi/7.3.1/../../../arm-none-eabi/lib/libc.a(lib_a-mlock.o)
                                                  /usr/lib/gcc/arm-none-eabi/7.3.1/../../../arm-none-eabi/lib/libc.a(lib_a-freer.o)
                                                  /usr/lib/gcc/arm-none-eabi/7.3.1/../../../arm-none-eabi/lib/libc.a(lib_a-mallocr.o)
__preinit_array_end                               /usr/lib/gcc/arm-none-eabi/7.3.1/../../../arm-none-eabi/lib/libc.a(lib_a-init.o)
__preinit_array_start                             /usr/lib/gcc/arm-none-eabi/7.3.1/../../../arm-none-eabi/lib/libc.a(lib_a-init.o)
__register_exitproc                               /usr/lib/gcc/arm-none-eabi/7.3.1/../../../arm-none-eabi/lib/libc.a(lib_a-__atexit.o)
                                                  /usr/lib/gcc/arm-none-eabi/7.3.1/../../../arm-none-eabi/lib/libc.a(lib_a-atexit.o)
__register_frame_info                             /usr/lib/gcc/arm-none-eabi/7.3.1/crtbegin.o
__set_BASEPRI                                     ./core_cm3.o
__set_CONTROL                                     ./core_cm3.o
__set_FAULTMASK                                   ./core_cm3.o
__set_MSP                                         ./core_cm3.o
                                                  ./core.o
__set_PRIMASK                                     ./core_cm3.o
__set_PSP                                         ./core_cm3.o
__stack                                           /usr/lib/gcc/arm-none-eabi/7.3.1/../../../arm-none-eabi/lib/crt0.o
__udivmoddi4                                      /usr/lib/gcc/arm-none-eabi/7.3.1/libgcc.a(_udivmoddi4.o)
                                                  /usr/lib/gcc/arm-none-eabi/7.3.1/libgcc.a(_aeabi_uldivmod.o)
_close                                            ./syscall.o
_ctype_                                           /usr/lib/gcc/arm-none-eabi/7.3.1/../../../arm-none-eabi/lib/libc.a(lib_a-ctype_.o)
                                                  ./fakefat32.o
_ebss                                             ./syscall.o
                                                  ./startup_stm32f10x_md.o
_edata                                            ./startup_stm32f10x_md.o
_estack                                           ./startup_stm32f10x_md.o
_exit                                             /usr/lib/gcc/arm-none-eabi/7.3.1/../../../arm-none-eabi/lib/libc.a(lib_a-exit.o)
_fini                                             /usr/lib/gcc/arm-none-eabi/7.3.1/crti.o
                                                  /usr/lib/gcc/arm-none-eabi/7.3.1/../../../arm-none-eabi/lib/libc.a(lib_a-fini.o)
_free_r                                           /usr/lib/gcc/arm-none-eabi/7.3.1/../../../arm-none-eabi/lib/libc.a(lib_a-freer.o)
                                                  /usr/lib/gcc/arm-none-eabi/7.3.1/../../../arm-none-eabi/lib/libc.a(lib_a-reent.o)
                                                  /usr/lib/gcc/arm-none-eabi/7.3.1/../../../arm-none-eabi/lib/libc.a(lib_a-mallocr.o)
                                                  /usr/lib/gcc/arm-none-eabi/7.3.1/../../../arm-none-eabi/lib/libc.a(lib_a-malloc.o)
_fstat                                            ./syscall.o
_global_impure_ptr                                /usr/lib/gcc/arm-none-eabi/7.3.1/../../../arm-none-eabi/lib/libc.a(lib_a-impure.o)
                                                  /usr/lib/gcc/arm-none-eabi/7.3.1/../../../arm-none-eabi/lib/libc.a(lib_a-__call_atexit.o)
                                                  /usr/lib/gcc/arm-none-eabi/7.3.1/../../../arm-none-eabi/lib/libc.a(lib_a-__atexit.o)
                                                  /usr/lib/gcc/arm-none-eabi/7.3.1/../../../arm-none-eabi/lib/libc.a(lib_a-exit.o)
_impure_ptr                                       /usr/lib/gcc/arm-none-eabi/7.3.1/../../../arm-none-eabi/lib/libc.a(lib_a-impure.o)
                                                  /usr/lib/gcc/arm-none-eabi/7.3.1/../../../arm-none-eabi/lib/libc.a(lib_a-reent.o)
                                                  /usr/lib/gcc/arm-none-eabi/7.3.1/../../../arm-none-eabi/lib/libc.a(lib_a-malloc.o)
_init                                             /usr/lib/gcc/arm-none-eabi/7.3.1/crti.o
                                                  /usr/lib/gcc/arm-none-eabi/7.3.1/../../../arm-none-eabi/lib/libc.a(lib_a-init.o)
_isatty                                           ./syscall.o
_lseek                                            ./syscall.o
_mainCRTStartup                                   /usr/lib/gcc/arm-none-eabi/7.3.1/../../../arm-none-eabi/lib/crt0.o
_malloc_r                                         /usr/lib/gcc/arm-none-eabi/7.3.1/../../../arm-none-eabi/lib/libc.a(lib_a-mallocr.o)
                                                  /usr/lib/gcc/arm-none-eabi/7.3.1/../../../arm-none-eabi/lib/libc.a(lib_a-malloc.o)
_malloc_trim_r                                    /usr/lib/gcc/arm-none-eabi/7.3.1/../../../arm-none-eabi/lib/libc.a(lib_a-freer.o)
_open                                             ./syscall.o
_read                                             ./syscall.o
_reclaim_reent                                    /usr/lib/gcc/arm-none-eabi/7.3.1/../../../arm-none-eabi/lib/libc.a(lib_a-reent.o)
_sbrk                                             ./syscall.o
                                                  /usr/lib/gcc/arm-none-eabi/7.3.1/../../../arm-none-eabi/lib/libc.a(lib_a-sbrkr.o)
_sbrk_r                                           /usr/lib/gcc/arm-none-eabi/7.3.1/../../../arm-none-eabi/lib/libc.a(lib_a-sbrkr.o)
                                                  /usr/lib/gcc/arm-none-eabi/7.3.1/../../../arm-none-eabi/lib/libc.a(lib_a-freer.o)
                                                  /usr/lib/gcc/arm-none-eabi/7.3.1/../../../arm-none-eabi/lib/libc.a(lib_a-mallocr.o)
_sbss                                             ./startup_stm32f10x_md.o
_sdata                                            ./startup_stm32f10x_md.o
_sidata                                           ./startup_stm32f10x_md.o
_start                                            /usr/lib/gcc/arm-none-eabi/7.3.1/../../../arm-none-eabi/lib/crt0.o
_write                                            ./syscall.o
adc_calibrate                                     ./ADC.o
                                                  ./app_interfaces.o
adc_config                                        ./ADC.o
                                                  ./app_interfaces.o
adc_config_channel                                ./ADC.o
                                                  ./app_interfaces.o
adc_fini                                          ./ADC.o
                                                  ./app_interfaces.o
adc_get                                           ./ADC.o
                                                  ./app_interfaces.o
adc_get_max_value                                 ./ADC.o
                                                  ./app_interfaces.o
adc_init                                          ./ADC.o
                                                  ./app_interfaces.o
adc_isready                                       ./ADC.o
                                                  ./app_interfaces.o
adc_sample                                        ./ADC.o
                                                  ./app_interfaces.o
adc_start                                         ./ADC.o
                                                  ./app_interfaces.o
adi_dp_commit                                     ./stlink.o
adi_fini                                          ./stlink.o
adi_init                                          ./stlink.o
adi_memap_read_buf32                              ./stlink.o
adi_memap_read_buf8                               ./stlink.o
adi_memap_read_reg32                              ./stlink.o
adi_memap_write_buf32                             ./stlink.o
adi_memap_write_buf8                              ./stlink.o
adi_memap_write_reg32                             ./stlink.o
app_interfaces                                    ./app_interfaces.o
                                                  ./CommandProcessor.o
                                                  ./USB_TO_MICROWIRE.o
                                                  ./USB_TO_DUSI.o
                                                  ./USB_TO_BDM.o
                                                  ./USB_TO_JTAG_RAW.o
                                                  ./USB_TO_SWIM.o
                                                  ./USB_TO_JTAG_LL.o
                                                  ./USB_TO_SWD.o
                                                  ./USB_TO_JTAG_HL.o
                                                  ./USB_TO_MSP430_JTAG.o
                                                  ./USB_TO_LPCICP.o
                                                  ./USB_TO_ISSP.o
                                                  ./USB_TO_C2.o
                                                  ./USB_TO_POWER.o
                                                  ./USB_TO_PWM.o
                                                  ./USB_TO_GPIO.o
                                                  ./USB_TO_IIC.o
                                                  ./USB_TO_SPI.o
                                                  ./USB_TO_XXX.o
                                                  ./BDM.o
                                                  ./MSP430_JTAG.o
                                                  ./LPC_ICP.o
                                                  ./ISSP.o
                                                  ./C2.o
                                                  ./IIC.o
                                                  ./PowerExt.o
                                                  ./MicroWire.o
                                                  ./SWIM.o
                                                  ./SWD.o
                                                  ./JTAG_TAP.o
                                                  ./SPI.o
                                                  ./usb_protocol_Versaloon.o
asyn_rx_buf                                       ./vsfusbd_Versaloon.o
                                                  ./USART.o
atexit                                            /usr/lib/gcc/arm-none-eabi/7.3.1/../../../arm-none-eabi/lib/libc.a(lib_a-atexit.o)
                                                  /usr/lib/gcc/arm-none-eabi/7.3.1/../../../arm-none-eabi/lib/libc.a(lib_a-__call_atexit.o)
                                                  /usr/lib/gcc/arm-none-eabi/7.3.1/../../../arm-none-eabi/lib/crt0.o
bdm_fini                                          ./BDM.o
                                                  ./app_interfaces.o
bdm_init                                          ./BDM.o
                                                  ./app_interfaces.o
bdm_sync                                          ./BDM.o
                                                  ./app_interfaces.o
bdm_transact                                      ./BDM.o
                                                  ./app_interfaces.o
buffer_out                                        ./vsfusbd_Versaloon.o
buffer_reply                                      ./USB_TO_XXX.o
                                                  ./CommandProcessor.o
                                                  ./USB_TO_MICROWIRE.o
                                                  ./USB_TO_DUSI.o
                                                  ./USB_TO_BDM.o
                                                  ./USB_TO_JTAG_RAW.o
                                                  ./USB_TO_SWIM.o
                                                  ./USB_TO_JTAG_LL.o
                                                  ./USB_TO_SWD.o
                                                  ./USB_TO_JTAG_HL.o
                                                  ./USB_TO_MSP430_JTAG.o
                                                  ./USB_TO_LPCICP.o
                                                  ./USB_TO_ISSP.o
                                                  ./USB_TO_C2.o
                                                  ./USB_TO_POWER.o
                                                  ./USB_TO_ADC.o
                                                  ./USB_TO_PWM.o
                                                  ./USB_TO_GPIO.o
                                                  ./USB_TO_IIC.o
                                                  ./USB_TO_SPI.o
                                                  ./USB_TO_CLKO.o
c2_addr_read                                      ./C2.o
                                                  ./app_interfaces.o
c2_addr_write                                     ./C2.o
                                                  ./app_interfaces.o
c2_data_read                                      ./C2.o
                                                  ./app_interfaces.o
c2_data_write                                     ./C2.o
                                                  ./app_interfaces.o
c2_fini                                           ./C2.o
                                                  ./app_interfaces.o
c2_init                                           ./C2.o
                                                  ./app_interfaces.o
cleanup_glue                                      /usr/lib/gcc/arm-none-eabi/7.3.1/../../../arm-none-eabi/lib/libc.a(lib_a-reent.o)
clko_config                                       ./CLKO.o
                                                  ./app_interfaces.o
clko_disable                                      ./CLKO.o
                                                  ./app_interfaces.o
clko_enable                                       ./CLKO.o
                                                  ./app_interfaces.o
clko_fini                                         ./CLKO.o
                                                  ./app_interfaces.o
clko_init                                         ./CLKO.o
                                                  ./app_interfaces.o
cm_clear_breakpoint                               ./stlink.o
cm_read_core_register                             ./stlink.o
cm_set_breakpoint                                 ./stlink.o
cm_switch                                         ./stlink.o
cm_write_core_register                            ./stlink.o
cmd_len                                           ./vsfusbd_Versaloon.o
core_interfaces                                   ./interfaces.o
                                                  ./CommandProcessor.o
                                                  ./usart_stream.o
                                                  ./ISSP.o
                                                  ./PowerExt.o
                                                  ./DUSI.o
                                                  ./JTAG_TAP.o
                                                  ./SPI.o
                                                  ./CLKO.o
                                                  ./app_interfaces.o
                                                  ./vsfusbd_Versaloon.o
                                                  ./usb_protocol_Versaloon.o
                                                  ./main.o
count_out                                         ./vsfusbd_Versaloon.o
crc_calc                                          ./crc.o
dusi_config                                       ./DUSI.o
                                                  ./app_interfaces.o
dusi_fini                                         ./DUSI.o
                                                  ./app_interfaces.o
dusi_init                                         ./DUSI.o
                                                  ./app_interfaces.o
dusi_io                                           ./DUSI.o
                                                  ./app_interfaces.o
errno                                             /usr/lib/gcc/arm-none-eabi/7.3.1/../../../arm-none-eabi/lib/libc.a(lib_a-reent.o)
                                                  /usr/lib/gcc/arm-none-eabi/7.3.1/../../../arm-none-eabi/lib/libc.a(lib_a-sbrkr.o)
exit                                              /usr/lib/gcc/arm-none-eabi/7.3.1/../../../arm-none-eabi/lib/libc.a(lib_a-exit.o)
                                                  /usr/lib/gcc/arm-none-eabi/7.3.1/../../../arm-none-eabi/lib/crt0.o
fakefat32_dir_read                                ./fakefat32.o
fakefat32_dir_write                               ./fakefat32.o
fakefat32_drv                                     ./fakefat32.o
free                                              /usr/lib/gcc/arm-none-eabi/7.3.1/../../../arm-none-eabi/lib/libc.a(lib_a-malloc.o)
g_pfnVectors                                      ./startup_stm32f10x_md.o
get_interface_name                                ./app_interfaces.o
gpio_clear                                        ./GPIO.o
                                                  ./app_interfaces.o
gpio_config                                       ./GPIO.o
                                                  ./app_interfaces.o
gpio_fini                                         ./GPIO.o
                                                  ./app_interfaces.o
gpio_in                                           ./GPIO.o
                                                  ./app_interfaces.o
gpio_init                                         ./GPIO.o
                                                  ./app_interfaces.o
gpio_out                                          ./GPIO.o
                                                  ./app_interfaces.o
gpio_set                                          ./GPIO.o
                                                  ./app_interfaces.o
hardware_init_hook                                /usr/lib/gcc/arm-none-eabi/7.3.1/../../../arm-none-eabi/lib/crt0.o
iic_config                                        ./IIC.o
                                                  ./app_interfaces.o
iic_fini                                          ./IIC.o
                                                  ./app_interfaces.o
iic_init                                          ./IIC.o
                                                  ./app_interfaces.o
iic_read                                          ./IIC.o
                                                  ./app_interfaces.o
iic_write                                         ./IIC.o
                                                  ./app_interfaces.o
interface_assert                                  ./app_interfaces.o
interfaces                                        ./app_interfaces.o
                                                  ./USB_TO_ADC.o
                                                  ./USB_TO_CLKO.o
                                                  ./stlink.o
                                                  ./usb_protocol_Versaloon.o
                                                  ./main.o
issp_enter_program_mode                           ./ISSP.o
                                                  ./app_interfaces.o
issp_fini                                         ./ISSP.o
                                                  ./app_interfaces.o
issp_init                                         ./ISSP.o
                                                  ./app_interfaces.o
issp_leave_program_mode                           ./ISSP.o
                                                  ./app_interfaces.o
issp_vector                                       ./ISSP.o
                                                  ./app_interfaces.o
issp_wait_and_poll                                ./ISSP.o
                                                  ./app_interfaces.o
jtaghl_config                                     ./JTAG_TAP.o
                                                  ./app_interfaces.o
jtaghl_config_daisychain                          ./JTAG_TAP.o
                                                  ./app_interfaces.o
jtaghl_config_speed                               ./JTAG_TAP.o
                                                  ./app_interfaces.o
jtaghl_dr                                         ./JTAG_TAP.o
                                                  ./app_interfaces.o
jtaghl_fini                                       ./JTAG_TAP.o
                                                  ./app_interfaces.o
jtaghl_init                                       ./JTAG_TAP.o
                                                  ./app_interfaces.o
jtaghl_ir                                         ./JTAG_TAP.o
                                                  ./app_interfaces.o
jtaghl_register_callback                          ./JTAG_TAP.o
                                                  ./app_interfaces.o
jtaghl_runtest                                    ./JTAG_TAP.o
                                                  ./app_interfaces.o
jtaghl_tms                                        ./JTAG_TAP.o
                                                  ./app_interfaces.o
jtagll_config                                     ./JTAG_TAP.o
                                                  ./app_interfaces.o
jtagll_fini                                       ./JTAG_TAP.o
                                                  ./app_interfaces.o
jtagll_init                                       ./JTAG_TAP.o
                                                  ./app_interfaces.o
jtagll_scan                                       ./JTAG_TAP.o
                                                  ./app_interfaces.o
jtagll_tms                                        ./JTAG_TAP.o
                                                  ./app_interfaces.o
jtagll_tms_clocks                                 ./JTAG_TAP.o
                                                  ./app_interfaces.o
jtagraw_config                                    ./JTAG_TAP.o
                                                  ./app_interfaces.o
jtagraw_execute                                   ./JTAG_TAP.o
                                                  ./app_interfaces.o
jtagraw_fini                                      ./JTAG_TAP.o
                                                  ./app_interfaces.o
jtagraw_init                                      ./JTAG_TAP.o
                                                  ./app_interfaces.o
lpcicp_enter_program_mode                         ./LPC_ICP.o
                                                  ./app_interfaces.o
lpcicp_fini                                       ./LPC_ICP.o
                                                  ./app_interfaces.o
lpcicp_in                                         ./LPC_ICP.o
                                                  ./app_interfaces.o
lpcicp_init                                       ./LPC_ICP.o
                                                  ./app_interfaces.o
lpcicp_out                                        ./LPC_ICP.o
                                                  ./app_interfaces.o
lpcicp_poll_ready                                 ./LPC_ICP.o
                                                  ./app_interfaces.o
main                                              ./main.o
                                                  ./startup_stm32f10x_md.o
                                                  /usr/lib/gcc/arm-none-eabi/7.3.1/../../../arm-none-eabi/lib/crt0.o
mal                                               ./mal.o
                                                  ./SCSI.o
malloc                                            /usr/lib/gcc/arm-none-eabi/7.3.1/../../../arm-none-eabi/lib/libc.a(lib_a-malloc.o)
                                                  ./compiler_string.o
memcmp                                            ./compiler_string.o
                                                  ./USB_TO_XXX.o
                                                  ./fakefat32.o
memcpy                                            ./compiler_string.o
                                                  ./USB_TO_JTAG_LL.o
                                                  ./USB_TO_JTAG_HL.o
                                                  ./USB_TO_MSP430_JTAG.o
                                                  ./USB_TO_XXX.o
                                                  ./fakefat32.o
                                                  ./buffer.o
                                                  ./vsfusbd_MSC_BOT.o
                                                  ./vsfusbd_HID.o
                                                  ./STM32_FLASH.o
                                                  ./core.o
                                                  ./MicroWire.o
                                                  ./JTAG_TAP.o
memset                                            ./compiler_string.o
                                                  ./fakefat32.o
                                                  ./SCSI.o
                                                  ./vsf_usbd.o
                                                  ./STM32_USBD.o
                                                  ./JTAG_TAP.o
                                                  /usr/lib/gcc/arm-none-eabi/7.3.1/../../../arm-none-eabi/lib/crt0.o
microwire_config                                  ./MicroWire.o
                                                  ./app_interfaces.o
microwire_fini                                    ./MicroWire.o
                                                  ./app_interfaces.o
microwire_init                                    ./MicroWire.o
                                                  ./app_interfaces.o
microwire_poll                                    ./MicroWire.o
                                                  ./app_interfaces.o
microwire_transport                               ./MicroWire.o
                                                  ./app_interfaces.o
msp430jtag_config                                 ./MSP430_JTAG.o
                                                  ./app_interfaces.o
msp430jtag_dr                                     ./MSP430_JTAG.o
                                                  ./app_interfaces.o
msp430jtag_fini                                   ./MSP430_JTAG.o
                                                  ./app_interfaces.o
msp430jtag_init                                   ./MSP430_JTAG.o
                                                  ./app_interfaces.o
msp430jtag_ir                                     ./MSP430_JTAG.o
                                                  ./app_interfaces.o
msp430jtag_poll                                   ./MSP430_JTAG.o
                                                  ./app_interfaces.o
msp430jtag_reset                                  ./MSP430_JTAG.o
                                                  ./app_interfaces.o
msp430jtag_tclk                                   ./MSP430_JTAG.o
                                                  ./app_interfaces.o
msp430jtag_tclk_strobe                            ./MSP430_JTAG.o
                                                  ./app_interfaces.o
peripheral_commit                                 ./interfaces.o
pwm_config_freq                                   ./PWM.o
                                                  ./app_interfaces.o
pwm_config_mode                                   ./PWM.o
                                                  ./app_interfaces.o
pwm_fini                                          ./PWM.o
                                                  ./app_interfaces.o
pwm_in                                            ./PWM.o
                                                  ./app_interfaces.o
pwm_init                                          ./PWM.o
                                                  ./app_interfaces.o
pwm_out                                           ./PWM.o
                                                  ./app_interfaces.o
rep_len                                           ./vsfusbd_Versaloon.o
                                                  ./CommandProcessor.o
                                                  ./USB_TO_MICROWIRE.o
                                                  ./USB_TO_DUSI.o
                                                  ./USB_TO_BDM.o
                                                  ./USB_TO_JTAG_RAW.o
                                                  ./USB_TO_SWIM.o
                                                  ./USB_TO_JTAG_LL.o
                                                  ./USB_TO_SWD.o
                                                  ./USB_TO_JTAG_HL.o
                                                  ./USB_TO_MSP430_JTAG.o
                                                  ./USB_TO_LPCICP.o
                                                  ./USB_TO_ISSP.o
                                                  ./USB_TO_C2.o
                                                  ./USB_TO_POWER.o
                                                  ./USB_TO_ADC.o
                                                  ./USB_TO_PWM.o
                                                  ./USB_TO_GPIO.o
                                                  ./USB_TO_IIC.o
                                                  ./USB_TO_SPI.o
                                                  ./USB_TO_CLKO.o
                                                  ./USB_TO_XXX.o
software_init_hook                                /usr/lib/gcc/arm-none-eabi/7.3.1/../../../arm-none-eabi/lib/crt0.o
spi_config                                        ./SPI.o
                                                  ./app_interfaces.o
spi_deselect                                      ./SPI.o
                                                  ./app_interfaces.o
spi_fini                                          ./SPI.o
                                                  ./app_interfaces.o
spi_init                                          ./SPI.o
                                                  ./app_interfaces.o
spi_io                                            ./SPI.o
                                                  ./app_interfaces.o
spi_select                                        ./SPI.o
                                                  ./app_interfaces.o
stlink                                            ./stlink.o
stlink_getpkgsize                                 ./stlink.o
stlink_process                                    ./stlink.o
stm32_adc_calibrate                               ./STM32_ADC.o
                                                  ./interfaces.o
stm32_adc_config                                  ./STM32_ADC.o
                                                  ./interfaces.o
stm32_adc_config_channel                          ./STM32_ADC.o
                                                  ./interfaces.o
stm32_adc_fini                                    ./STM32_ADC.o
                                                  ./interfaces.o
stm32_adc_get                                     ./STM32_ADC.o
                                                  ./interfaces.o
stm32_adc_get_max_value                           ./STM32_ADC.o
                                                  ./interfaces.o
stm32_adc_init                                    ./STM32_ADC.o
                                                  ./interfaces.o
stm32_adc_isready                                 ./STM32_ADC.o
                                                  ./interfaces.o
stm32_adc_sample                                  ./STM32_ADC.o
                                                  ./interfaces.o
stm32_adc_start                                   ./STM32_ADC.o
                                                  ./interfaces.o
stm32_clko_config                                 ./STM32_CLKO.o
                                                  ./interfaces.o
stm32_clko_disable                                ./STM32_CLKO.o
                                                  ./interfaces.o
stm32_clko_enable                                 ./STM32_CLKO.o
                                                  ./interfaces.o
stm32_clko_fini                                   ./STM32_CLKO.o
                                                  ./interfaces.o
stm32_clko_init                                   ./STM32_CLKO.o
                                                  ./interfaces.o
stm32_delay_delayms                               ./core.o
                                                  ./interfaces.o
stm32_delay_delayus                               ./core.o
                                                  ./interfaces.o
stm32_delay_init                                  ./core.o
                                                  ./interfaces.o
stm32_ebi_config                                  ./STM32_EBI.o
                                                  ./interfaces.o
stm32_ebi_config_ddram                            ./STM32_EBI.o
                                                  ./interfaces.o
stm32_ebi_config_nand                             ./STM32_EBI.o
                                                  ./interfaces.o
stm32_ebi_config_nor                              ./STM32_EBI.o
                                                  ./interfaces.o
stm32_ebi_config_pccard                           ./STM32_EBI.o
                                                  ./interfaces.o
stm32_ebi_config_psram                            ./STM32_EBI.o
                                                  ./interfaces.o
stm32_ebi_config_sdram                            ./STM32_EBI.o
                                                  ./interfaces.o
stm32_ebi_config_sram                             ./STM32_EBI.o
                                                  ./interfaces.o
stm32_ebi_fini                                    ./STM32_EBI.o
                                                  ./interfaces.o
stm32_ebi_get_base_addr                           ./STM32_EBI.o
                                                  ./interfaces.o
stm32_ebi_init                                    ./STM32_EBI.o
                                                  ./interfaces.o
stm32_ebi_isready                                 ./STM32_EBI.o
                                                  ./interfaces.o
stm32_ebi_read                                    ./STM32_EBI.o
                                                  ./interfaces.o
stm32_ebi_read16                                  ./STM32_EBI.o
                                                  ./interfaces.o
stm32_ebi_read32                                  ./STM32_EBI.o
                                                  ./interfaces.o
stm32_ebi_read8                                   ./STM32_EBI.o
                                                  ./interfaces.o
stm32_ebi_readp32                                 ./STM32_EBI.o
stm32_ebi_readp32_isready                         ./STM32_EBI.o
stm32_ebi_write                                   ./STM32_EBI.o
                                                  ./interfaces.o
stm32_ebi_write16                                 ./STM32_EBI.o
                                                  ./interfaces.o
stm32_ebi_write32                                 ./STM32_EBI.o
                                                  ./interfaces.o
stm32_ebi_write8                                  ./STM32_EBI.o
                                                  ./interfaces.o
stm32_ebi_writep32                                ./STM32_EBI.o
stm32_ebi_writep32_isready                        ./STM32_EBI.o
stm32_eint_config                                 ./STM32_EINT.o
                                                  ./interfaces.o
stm32_eint_disable                                ./STM32_EINT.o
                                                  ./interfaces.o
stm32_eint_enable                                 ./STM32_EINT.o
                                                  ./interfaces.o
stm32_eint_fini                                   ./STM32_EINT.o
                                                  ./interfaces.o
stm32_eint_init                                   ./STM32_EINT.o
                                                  ./interfaces.o
stm32_eint_trigger                                ./STM32_EINT.o
                                                  ./interfaces.o
stm32_flash_erasepage                             ./STM32_FLASH.o
                                                  ./interfaces.o
stm32_flash_erasepage_isready                     ./STM32_FLASH.o
                                                  ./interfaces.o
stm32_flash_fini                                  ./STM32_FLASH.o
                                                  ./interfaces.o
stm32_flash_getcapacity                           ./STM32_FLASH.o
                                                  ./interfaces.o
stm32_flash_init                                  ./STM32_FLASH.o
                                                  ./interfaces.o
stm32_flash_isprotected                           ./STM32_FLASH.o
                                                  ./interfaces.o
stm32_flash_lock                                  ./STM32_FLASH.o
                                                  ./interfaces.o
stm32_flash_protect                               ./STM32_FLASH.o
                                                  ./interfaces.o
stm32_flash_read                                  ./STM32_FLASH.o
                                                  ./interfaces.o
stm32_flash_read_isready                          ./STM32_FLASH.o
                                                  ./interfaces.o
stm32_flash_readpage                              ./STM32_FLASH.o
                                                  ./interfaces.o
stm32_flash_readpage_isready                      ./STM32_FLASH.o
                                                  ./interfaces.o
stm32_flash_unlock                                ./STM32_FLASH.o
                                                  ./interfaces.o
stm32_flash_write                                 ./STM32_FLASH.o
                                                  ./interfaces.o
stm32_flash_write_isready                         ./STM32_FLASH.o
                                                  ./interfaces.o
stm32_flash_writepage                             ./STM32_FLASH.o
                                                  ./interfaces.o
stm32_flash_writepage_isready                     ./STM32_FLASH.o
                                                  ./interfaces.o
stm32_gpio_clear                                  ./STM32_GPIO.o
                                                  ./interfaces.o
stm32_gpio_config                                 ./STM32_GPIO.o
                                                  ./interfaces.o
stm32_gpio_config_pin                             ./STM32_GPIO.o
                                                  ./interfaces.o
stm32_gpio_fini                                   ./STM32_GPIO.o
                                                  ./interfaces.o
stm32_gpio_get                                    ./STM32_GPIO.o
                                                  ./interfaces.o
stm32_gpio_in                                     ./STM32_GPIO.o
                                                  ./interfaces.o
stm32_gpio_init                                   ./STM32_GPIO.o
                                                  ./interfaces.o
stm32_gpio_out                                    ./STM32_GPIO.o
                                                  ./interfaces.o
stm32_gpio_set                                    ./STM32_GPIO.o
                                                  ./interfaces.o
stm32_interface_fini                              ./core.o
                                                  ./interfaces.o
stm32_interface_get_info                          ./core.o
                                                  ./STM32_SDIO.o
                                                  ./STM32_EBI.o
                                                  ./STM32_USART.o
                                                  ./STM32_ADC.o
                                                  ./STM32_SPI.o
                                                  ./STM32_USBD.o
                                                  ./STM32_CLKO.o
stm32_interface_init                              ./core.o
                                                  ./interfaces.o
stm32_interface_reset                             ./core.o
                                                  ./interfaces.o
stm32_interface_set_stack                         ./core.o
                                                  ./interfaces.o
stm32_sdio_config                                 ./STM32_SDIO.o
                                                  ./interfaces.o
stm32_sdio_data_rx                                ./STM32_SDIO.o
                                                  ./interfaces.o
stm32_sdio_data_rx_isready                        ./STM32_SDIO.o
                                                  ./interfaces.o
stm32_sdio_data_tx                                ./STM32_SDIO.o
                                                  ./interfaces.o
stm32_sdio_data_tx_isready                        ./STM32_SDIO.o
                                                  ./interfaces.o
stm32_sdio_fini                                   ./STM32_SDIO.o
                                                  ./interfaces.o
stm32_sdio_get_resp                               ./STM32_SDIO.o
                                                  ./interfaces.o
stm32_sdio_init                                   ./STM32_SDIO.o
                                                  ./interfaces.o
stm32_sdio_send_cmd                               ./STM32_SDIO.o
                                                  ./interfaces.o
stm32_sdio_send_cmd_isready                       ./STM32_SDIO.o
                                                  ./interfaces.o
stm32_sdio_start                                  ./STM32_SDIO.o
                                                  ./interfaces.o
stm32_sdio_stop                                   ./STM32_SDIO.o
                                                  ./interfaces.o
stm32_spi_config                                  ./STM32_SPI.o
                                                  ./interfaces.o
stm32_spi_deselect                                ./STM32_SPI.o
                                                  ./interfaces.o
stm32_spi_disable                                 ./STM32_SPI.o
                                                  ./interfaces.o
stm32_spi_enable                                  ./STM32_SPI.o
                                                  ./interfaces.o
stm32_spi_fini                                    ./STM32_SPI.o
                                                  ./interfaces.o
stm32_spi_get_ability                             ./STM32_SPI.o
                                                  ./interfaces.o
stm32_spi_init                                    ./STM32_SPI.o
                                                  ./interfaces.o
stm32_spi_io                                      ./STM32_SPI.o
                                                  ./interfaces.o
stm32_spi_io_dma_end                              ./STM32_SPI.o
                                                  ./interfaces.o
stm32_spi_io_dma_isready                          ./STM32_SPI.o
                                                  ./interfaces.o
stm32_spi_io_dma_start                            ./STM32_SPI.o
                                                  ./interfaces.o
stm32_spi_io_rx                                   ./STM32_SPI.o
                                                  ./interfaces.o
stm32_spi_io_rx_isready                           ./STM32_SPI.o
                                                  ./interfaces.o
stm32_spi_io_tx                                   ./STM32_SPI.o
                                                  ./interfaces.o
stm32_spi_io_tx_isready                           ./STM32_SPI.o
                                                  ./interfaces.o
stm32_spi_select                                  ./STM32_SPI.o
                                                  ./interfaces.o
stm32_tickclk_fini                                ./core.o
                                                  ./interfaces.o
stm32_tickclk_get_count                           ./core.o
                                                  ./interfaces.o
stm32_tickclk_init                                ./core.o
                                                  ./interfaces.o
stm32_tickclk_start                               ./core.o
                                                  ./interfaces.o
stm32_tickclk_stop                                ./core.o
                                                  ./interfaces.o
stm32_timer_config                                ./STM32_TIM.o
                                                  ./interfaces.o
stm32_timer_config_channel                        ./STM32_TIM.o
                                                  ./interfaces.o
stm32_timer_fini                                  ./STM32_TIM.o
                                                  ./interfaces.o
stm32_timer_get_channel                           ./STM32_TIM.o
                                                  ./interfaces.o
stm32_timer_get_count                             ./STM32_TIM.o
                                                  ./interfaces.o
stm32_timer_init                                  ./STM32_TIM.o
                                                  ./interfaces.o
stm32_timer_set_channel                           ./STM32_TIM.o
                                                  ./interfaces.o
stm32_timer_set_count                             ./STM32_TIM.o
                                                  ./interfaces.o
stm32_timer_start                                 ./STM32_TIM.o
                                                  ./interfaces.o
stm32_timer_stop                                  ./STM32_TIM.o
                                                  ./interfaces.o
stm32_uid_get                                     ./core.o
                                                  ./interfaces.o
stm32_usart_config                                ./STM32_USART.o
                                                  ./interfaces.o
stm32_usart_config_callback                       ./STM32_USART.o
                                                  ./interfaces.o
stm32_usart_fini                                  ./STM32_USART.o
                                                  ./interfaces.o
stm32_usart_init                                  ./STM32_USART.o
                                                  ./interfaces.o
stm32_usart_rx                                    ./STM32_USART.o
                                                  ./interfaces.o
stm32_usart_rx_isready                            ./STM32_USART.o
                                                  ./interfaces.o
stm32_usart_tx                                    ./STM32_USART.o
                                                  ./interfaces.o
stm32_usart_tx_isready                            ./STM32_USART.o
                                                  ./interfaces.o
stm32_usbd_IN_dbuffer                             ./STM32_USBD.o
stm32_usbd_IN_epsize                              ./STM32_USBD.o
stm32_usbd_OUT_dbuffer                            ./STM32_USBD.o
stm32_usbd_OUT_epsize                             ./STM32_USBD.o
stm32_usbd_callback                               ./STM32_USBD.o
                                                  ./interfaces.o
stm32_usbd_connect                                ./STM32_USBD.o
                                                  ./interfaces.o
stm32_usbd_disconnect                             ./STM32_USBD.o
                                                  ./interfaces.o
stm32_usbd_ep_clear_IN_stall                      ./STM32_USBD.o
                                                  ./interfaces.o
stm32_usbd_ep_clear_OUT_stall                     ./STM32_USBD.o
                                                  ./interfaces.o
stm32_usbd_ep_enable_OUT                          ./STM32_USBD.o
                                                  ./interfaces.o
stm32_usbd_ep_get_IN_epsize                       ./STM32_USBD.o
                                                  ./interfaces.o
stm32_usbd_ep_get_OUT_count                       ./STM32_USBD.o
                                                  ./interfaces.o
stm32_usbd_ep_get_OUT_epsize                      ./STM32_USBD.o
                                                  ./interfaces.o
stm32_usbd_ep_is_IN_dbuffer                       ./STM32_USBD.o
                                                  ./interfaces.o
stm32_usbd_ep_is_IN_stall                         ./STM32_USBD.o
                                                  ./interfaces.o
stm32_usbd_ep_is_OUT_dbuffer                      ./STM32_USBD.o
                                                  ./interfaces.o
stm32_usbd_ep_is_OUT_stall                        ./STM32_USBD.o
                                                  ./interfaces.o
stm32_usbd_ep_num                                 ./STM32_USBD.o
                                                  ./interfaces.o
stm32_usbd_ep_read_OUT_buffer                     ./STM32_USBD.o
                                                  ./interfaces.o
stm32_usbd_ep_reset                               ./STM32_USBD.o
                                                  ./interfaces.o
stm32_usbd_ep_reset_IN_toggle                     ./STM32_USBD.o
                                                  ./interfaces.o
stm32_usbd_ep_reset_OUT_toggle                    ./STM32_USBD.o
                                                  ./interfaces.o
stm32_usbd_ep_set_IN_count                        ./STM32_USBD.o
                                                  ./interfaces.o
stm32_usbd_ep_set_IN_dbuffer                      ./STM32_USBD.o
                                                  ./interfaces.o
stm32_usbd_ep_set_IN_epsize                       ./STM32_USBD.o
                                                  ./interfaces.o
stm32_usbd_ep_set_IN_stall                        ./STM32_USBD.o
                                                  ./interfaces.o
stm32_usbd_ep_set_OUT_dbuffer                     ./STM32_USBD.o
                                                  ./interfaces.o
stm32_usbd_ep_set_OUT_epsize                      ./STM32_USBD.o
                                                  ./interfaces.o
stm32_usbd_ep_set_OUT_stall                       ./STM32_USBD.o
                                                  ./interfaces.o
stm32_usbd_ep_set_type                            ./STM32_USBD.o
                                                  ./interfaces.o
stm32_usbd_ep_switch_IN_buffer                    ./STM32_USBD.o
                                                  ./interfaces.o
stm32_usbd_ep_switch_OUT_buffer                   ./STM32_USBD.o
                                                  ./interfaces.o
stm32_usbd_ep_toggle_IN_toggle                    ./STM32_USBD.o
                                                  ./interfaces.o
stm32_usbd_ep_toggle_OUT_toggle                   ./STM32_USBD.o
                                                  ./interfaces.o
stm32_usbd_ep_write_IN_buffer                     ./STM32_USBD.o
                                                  ./interfaces.o
stm32_usbd_epaddr                                 ./STM32_USBD.o
stm32_usbd_fini                                   ./STM32_USBD.o
                                                  ./interfaces.o
stm32_usbd_get_address                            ./STM32_USBD.o
                                                  ./interfaces.o
stm32_usbd_get_frame_number                       ./STM32_USBD.o
                                                  ./interfaces.o
stm32_usbd_get_setup                              ./STM32_USBD.o
                                                  ./interfaces.o
stm32_usbd_init                                   ./STM32_USBD.o
                                                  ./interfaces.o
stm32_usbd_lowpower                               ./STM32_USBD.o
                                                  ./interfaces.o
stm32_usbd_poll                                   ./STM32_USBD.o
                                                  ./interfaces.o
stm32_usbd_prepare_buffer                         ./STM32_USBD.o
                                                  ./interfaces.o
stm32_usbd_reset                                  ./STM32_USBD.o
                                                  ./interfaces.o
stm32_usbd_resume                                 ./STM32_USBD.o
                                                  ./interfaces.o
stm32_usbd_set_address                            ./STM32_USBD.o
                                                  ./interfaces.o
stm32_usbd_suspend                                ./STM32_USBD.o
                                                  ./interfaces.o
strcat                                            ./compiler_string.o
strchr                                            ./compiler_string.o
strcmp                                            ./compiler_string.o
                                                  ./fakefat32.o
strcpy                                            ./compiler_string.o
strdup                                            ./compiler_string.o
stream_fini                                       ./stream.o
stream_get_data_size                              ./stream.o
                                                  ./usart_stream.o
stream_get_free_size                              ./stream.o
                                                  ./vsfusbd_CDC.o
stream_init                                       ./stream.o
                                                  ./usart_stream.o
stream_rx                                         ./stream.o
                                                  ./vsfusbd_CDC.o
                                                  ./usart_stream.o
stream_tx                                         ./stream.o
                                                  ./vsfusbd_CDC.o
                                                  ./usart_stream.o
strlen                                            ./compiler_string.o
                                                  ./fakefat32.o
strncat                                           ./compiler_string.o
strncpy                                           ./compiler_string.o
strstr                                            ./compiler_string.o
swd_config                                        ./SWD.o
                                                  ./app_interfaces.o
swd_fini                                          ./SWD.o
                                                  ./app_interfaces.o
swd_init                                          ./SWD.o
                                                  ./app_interfaces.o
swd_seqin                                         ./SWD.o
                                                  ./app_interfaces.o
swd_seqout                                        ./SWD.o
                                                  ./app_interfaces.o
swd_transact                                      ./SWD.o
                                                  ./app_interfaces.o
swim_config                                       ./SWIM.o
                                                  ./app_interfaces.o
swim_enable                                       ./SWIM.o
                                                  ./app_interfaces.o
swim_fini                                         ./SWIM.o
                                                  ./app_interfaces.o
swim_init                                         ./SWIM.o
                                                  ./app_interfaces.o
swim_rotf                                         ./SWIM.o
                                                  ./app_interfaces.o
swim_srst                                         ./SWIM.o
                                                  ./app_interfaces.o
swim_sync                                         ./SWIM.o
                                                  ./app_interfaces.o
swim_wotf                                         ./SWIM.o
                                                  ./app_interfaces.o
target_voltage_get                                ./PowerExt.o
                                                  ./app_interfaces.o
target_voltage_poll                               ./PowerExt.o
                                                  ./app_interfaces.o
target_voltage_set                                ./PowerExt.o
                                                  ./app_interfaces.o
usart_config                                      ./USART.o
                                                  ./app_interfaces.o
usart_fini                                        ./USART.o
                                                  ./app_interfaces.o
usart_init                                        ./USART.o
                                                  ./app_interfaces.o
usart_poll                                        ./USART.o
                                                  ./app_interfaces.o
usart_receive                                     ./USART.o
                                                  ./app_interfaces.o
usart_send                                        ./USART.o
                                                  ./app_interfaces.o
usart_status                                      ./USART.o
                                                  ./app_interfaces.o
usart_stream_config                               ./usart_stream.o
                                                  ./USART.o
                                                  ./usb_protocol_Versaloon.o
usart_stream_fini                                 ./usart_stream.o
                                                  ./USART.o
usart_stream_init                                 ./usart_stream.o
                                                  ./USART.o
                                                  ./usb_protocol_Versaloon.o
usart_stream_p0                                   ./USART.o
                                                  ./usb_protocol_Versaloon.o
usart_stream_poll                                 ./usart_stream.o
                                                  ./USART.o
                                                  ./usb_protocol_Versaloon.o
usart_stream_rx                                   ./usart_stream.o
                                                  ./USART.o
usart_stream_tx                                   ./usart_stream.o
                                                  ./USART.o
usb_device                                        ./usb_protocol_Versaloon.o
usb_ovf                                           ./vsfusbd_Versaloon.o
usb_protocol_init                                 ./usb_protocol_Versaloon.o
                                                  ./main.o
usb_protocol_poll                                 ./usb_protocol_Versaloon.o
                                                  ./main.o
vsf_bufmgr_free                                   ./buffer.o
vsf_bufmgr_init                                   ./buffer.o
vsf_bufmgr_malloc                                 ./buffer.o
vsf_fifo_get_avail_length                         ./buffer.o
                                                  ./stream.o
                                                  ./USART.o
vsf_fifo_get_data_length                          ./buffer.o
                                                  ./stream.o
                                                  ./USART.o
vsf_fifo_init                                     ./buffer.o
                                                  ./stream.o
vsf_fifo_peek                                     ./buffer.o
vsf_fifo_peek_consequent                          ./buffer.o
vsf_fifo_pop                                      ./buffer.o
                                                  ./stream.o
vsf_fifo_pop8                                     ./buffer.o
vsf_fifo_push                                     ./buffer.o
                                                  ./stream.o
vsf_fifo_push8                                    ./buffer.o
vsf_multibuf_get_empty                            ./buffer.o
vsf_multibuf_get_payload                          ./buffer.o
vsf_multibuf_init                                 ./buffer.o
vsf_multibuf_pop                                  ./buffer.o
vsf_multibuf_push                                 ./buffer.o
vsfusbd_CDCACMControl_class                       ./vsfusbd_CDCACM.o
                                                  ./usb_protocol_Versaloon.o
vsfusbd_CDCACMData_class                          ./vsfusbd_CDCACM.o
                                                  ./usb_protocol_Versaloon.o
vsfusbd_CDCControl_class                          ./vsfusbd_CDC.o
                                                  ./vsfusbd_CDCACM.o
vsfusbd_CDCData_class                             ./vsfusbd_CDC.o
                                                  ./vsfusbd_CDCACM.o
vsfusbd_HID_class                                 ./vsfusbd_HID.o
vsfusbd_HID_get_desc                              ./vsfusbd_HID.o
vsfusbd_MSCBOT_class                              ./vsfusbd_MSC_BOT.o
vsfusbd_Versaloon_class                           ./vsfusbd_Versaloon.o
                                                  ./usb_protocol_Versaloon.o
vsfusbd_auto_init                                 ./vsf_usbd.o
vsfusbd_device_fini                               ./vsf_usbd.o
vsfusbd_device_get_descriptor                     ./vsf_usbd.o
                                                  ./vsfusbd_HID.o
vsfusbd_device_init                               ./vsf_usbd.o
                                                  ./usb_protocol_Versaloon.o
vsfusbd_device_poll                               ./vsf_usbd.o
                                                  ./usb_protocol_Versaloon.o
vsfusbd_ep_receive                                ./vsf_usbd.o
vsfusbd_ep_receive_nb                             ./vsf_usbd.o
vsfusbd_ep_receive_nb_isready                     ./vsf_usbd.o
vsfusbd_ep_send                                   ./vsf_usbd.o
                                                  ./vsfusbd_Versaloon.o
vsfusbd_ep_send_nb                                ./vsf_usbd.o
                                                  ./vsfusbd_HID.o
vsfusbd_ep_send_nb_isready                        ./vsf_usbd.o
                                                  ./vsfusbd_HID.o
vsfusbd_get_class_request_filter                  ./vsf_usbd.o
                                                  ./vsfusbd_CDCACM.o
vsfusbd_on_ATTACH                                 ./vsf_usbd.o
vsfusbd_on_DETACH                                 ./vsf_usbd.o
vsfusbd_on_ERROR                                  ./vsf_usbd.o
vsfusbd_on_OVERFLOW                               ./vsf_usbd.o
vsfusbd_on_RESET                                  ./vsf_usbd.o
vsfusbd_on_RESUME                                 ./vsf_usbd.o
vsfusbd_on_SETUP                                  ./vsf_usbd.o
vsfusbd_on_SOF                                    ./vsf_usbd.o
vsfusbd_on_SUSPEND                                ./vsf_usbd.o
vsfusbd_on_UNDERFLOW                              ./vsf_usbd.o
vsfusbd_on_WAKEUP                                 ./vsf_usbd.o
vsfusbd_set_IN_handler                            ./vsf_usbd.o
                                                  ./vsfusbd_MSC_BOT.o
                                                  ./vsfusbd_CDC.o
vsfusbd_set_OUT_handler                           ./vsf_usbd.o
                                                  ./vsfusbd_MSC_BOT.o
                                                  ./vsfusbd_HID.o
                                                  ./vsfusbd_CDC.o
                                                  ./vsfusbd_Versaloon.o
